(lp0
(lp1
cnumpy.core.multiarray
_reconstruct
p2
(cnumpy
ndarray
p3
(I0
tp4
S'b'
p5
tp6
Rp7
(I1
(I1
tp8
cnumpy
dtype
p9
(S'f8'
p10
I0
I1
tp11
Rp12
(I3
S'<'
p13
NNNI-1
I-1
I0
tp14
bI00
S'\x11\x8d\x85\xe6\x94\x9cR@'
p15
tp16
bag2
(g3
(I0
tp17
g5
tp18
Rp19
(I1
(I1
tp20
g12
I00
S'H\xb7\xbcW!\x16S@'
p21
tp22
bag2
(g3
(I0
tp23
g5
tp24
Rp25
(I1
(I1
tp26
g12
I00
S'\xe5\x91\xbf\xb0\x87\x91S@'
p27
tp28
bag2
(g3
(I0
tp29
g5
tp30
Rp31
(I1
(I1
tp32
g12
I00
S'\x18W\x0bu\xce\x0eT@'
p33
tp34
bag2
(g3
(I0
tp35
g5
tp36
Rp37
(I1
(I1
tp38
g12
I00
S'\xde\xa1\x95E\xfc\x8dT@'
p39
tp40
bag2
(g3
(I0
tp41
g5
tp42
Rp43
(I1
(I1
tp44
g12
I00
S'\x96q\x07\xe1\x17\x0fU@'
p45
tp46
bag2
(g3
(I0
tp47
g5
tp48
Rp49
(I1
(I1
tp50
g12
I00
S'S\xf0\xec#(\x92U@'
p51
tp52
bag2
(g3
(I0
tp53
g5
tp54
Rp55
(I1
(I1
tp56
g12
I00
S'B\xae\xe7\x084\x17V@'
p57
tp58
bag2
(g3
(I0
tp59
g5
tp60
Rp61
(I1
(I1
tp62
g12
I00
S'\xf0+\x01\xa9B\x9eV@'
p63
tp64
bag2
(g3
(I0
tp65
g5
tp66
Rp67
(I1
(I1
tp68
g12
I00
S"P,X<['W@"
p69
tp70
bag2
(g3
(I0
tp71
g5
tp72
Rp73
(I1
(I1
tp74
g12
I00
S'( \x9d\x18\x85\xb2W@'
p75
tp76
bag2
(g3
(I0
tp77
g5
tp78
Rp79
(I1
(I1
tp80
g12
I00
S'\x17\x1cI\xb3\xc7?X@'
p81
tp82
bag2
(g3
(I0
tp83
g5
tp84
Rp85
(I1
(I1
tp86
g12
I00
S'\xc4";\xa1*\xcfX@'
p87
tp88
bag2
(g3
(I0
tp89
g5
tp90
Rp91
(I1
(I1
tp92
g12
I00
S'\xac\xd5\xfe\x96\xb5`Y@'
p93
tp94
bag2
(g3
(I0
tp95
g5
tp96
Rp97
(I1
(I1
tp98
g12
I00
S'h\xc8\x85ip\xf4Y@'
p99
tp100
bag2
(g3
(I0
tp101
g5
tp102
Rp103
(I1
(I1
tp104
g12
I00
S'\xdc\xef\x9b\rc\x8aZ@'
p105
tp106
bag2
(g3
(I0
tp107
g5
tp108
Rp109
(I1
(I1
tp110
g12
I00
S'\xf5z\x03\x99\x95"[@'
p111
tp112
bag2
(g3
(I0
tp113
g5
tp114
Rp115
(I1
(I1
tp116
g12
I00
S'\xd7G\x92B\x10\xbd[@'
p117
tp118
baa(lp119
g2
(g3
(I0
tp120
g5
tp121
Rp122
(I1
(I1
tp123
g12
I00
S'/\x8d\x84\x1eb R@'
p124
tp125
bag2
(g3
(I0
tp126
g5
tp127
Rp128
(I1
(I1
tp129
g12
I00
S'\x0f\xee\xcc\xe2\x1e\x9aR@'
p130
tp131
bag2
(g3
(I0
tp132
g5
tp133
Rp134
(I1
(I1
tp135
g12
I00
S'zP\xc4\xee\xc5\x15S@'
p136
tp137
bag2
(g3
(I0
tp138
g5
tp139
Rp140
(I1
(I1
tp141
g12
I00
S'\x9f,\xdc&^\x93S@'
p142
tp143
bag2
(g3
(I0
tp144
g5
tp145
Rp146
(I1
(I1
tp147
g12
I00
S'=\xadm\x90\xee\x12T@'
p148
tp149
bag2
(g3
(I0
tp150
g5
tp151
Rp152
(I1
(I1
tp153
g12
I00
S'MR\xe2Q~\x94T@'
p154
tp155
bag2
(g3
(I0
tp156
g5
tp157
Rp158
(I1
(I1
tp159
g12
I00
S'\x87;\xe3\xb2\x14\x18U@'
p160
tp161
bag2
(g3
(I0
tp162
g5
tp163
Rp164
(I1
(I1
tp165
g12
I00
S'W\xa8\xf8\x1b\xb9\x9dU@'
p166
tp167
bag2
(g3
(I0
tp168
g5
tp169
Rp170
(I1
(I1
tp171
g12
I00
S'\xf29>\x18s%V@'
p172
tp173
bag2
(g3
(I0
tp174
g5
tp175
Rp176
(I1
(I1
tp177
g12
I00
S'!\x9c\xa0TJ\xafV@'
p178
tp179
bag2
(g3
(I0
tp180
g5
tp181
Rp182
(I1
(I1
tp183
g12
I00
S'5r,\xa0F;W@'
p184
tp185
bag2
(g3
(I0
tp186
g5
tp187
Rp188
(I1
(I1
tp189
g12
I00
S'\xe1-c\xeco\xc9W@'
p190
tp191
bag2
(g3
(I0
tp192
g5
tp193
Rp194
(I1
(I1
tp195
g12
I00
S'\xae_\x95M\xceYX@'
p196
tp197
bag2
(g3
(I0
tp198
g5
tp199
Rp200
(I1
(I1
tp201
g12
I00
S'\xa4\x17B\xfbi\xecX@'
p202
tp203
bag2
(g3
(I0
tp204
g5
tp205
Rp206
(I1
(I1
tp207
g12
I00
S')\xf4zPK\x81Y@'
p208
tp209
bag2
(g3
(I0
tp210
g5
tp211
Rp212
(I1
(I1
tp213
g12
I00
S'\xf1\x84L\xccz\x18Z@'
p214
tp215
bag2
(g3
(I0
tp216
g5
tp217
Rp218
(I1
(I1
tp219
g12
I00
S'\x8d\xaf*\x12\x01\xb2Z@'
p220
tp221
bag2
(g3
(I0
tp222
g5
tp223
Rp224
(I1
(I1
tp225
g12
I00
S'p\xcb`\xea\xe6M[@'
p226
tp227
bag2
(g3
(I0
tp228
g5
tp229
Rp230
(I1
(I1
tp231
g12
I00
S'\xacq\xa1@5\xec[@'
p232
tp233
bag2
(g3
(I0
tp234
g5
tp235
Rp236
(I1
(I1
tp237
g12
I00
S"\xbd\x8c@'\xf5\x8c\\@"
p238
tp239
bag2
(g3
(I0
tp240
g5
tp241
Rp242
(I1
(I1
tp243
g12
I00
S'D\xe1\x81\xd6/0]@'
p244
tp245
bag2
(g3
(I0
tp246
g5
tp247
Rp248
(I1
(I1
tp249
g12
I00
S'\xd7\x14\x13\xad\xee\xd5]@'
p250
tp251
baa(lp252
g2
(g3
(I0
tp253
g5
tp254
Rp255
(I1
(I1
tp256
g12
I00
S'\xe9Hs/\xb0\xb9Q@'
p257
tp258
bag2
(g3
(I0
tp259
g5
tp260
Rp261
(I1
(I1
tp262
g12
I00
S"\xe6\x8a.\x15'0R@"
p263
tp264
bag2
(g3
(I0
tp265
g5
tp266
Rp267
(I1
(I1
tp268
g12
I00
S'\xfa\x81\x03&\x8f\xa8R@'
p269
tp270
bag2
(g3
(I0
tp271
g5
tp272
Rp273
(I1
(I1
tp274
g12
I00
S'|\xa6\xed\x00\xef"S@'
p275
tp276
bag2
(g3
(I0
tp277
g5
tp278
Rp279
(I1
(I1
tp280
g12
I00
S'\xb6P~lM\x9fS@'
p281
tp282
bag2
(g3
(I0
tp283
g5
tp284
Rp285
(I1
(I1
tp286
g12
I00
S'\x84\xc8\x99V\xb1\x1dT@'
p287
tp288
bag2
(g3
(I0
tp289
g5
tp290
Rp291
(I1
(I1
tp292
g12
I00
S';\x13E\xd4!\x9eT@'
p293
tp294
bag2
(g3
(I0
tp295
g5
tp296
Rp297
(I1
(I1
tp298
g12
I00
S'\xa7\x16\x83!\xa6 U@'
p299
tp300
bag2
(g3
(I0
tp301
g5
tp302
Rp303
(I1
(I1
tp304
g12
I00
S'k\xd0?\xa1E\xa5U@'
p305
tp306
bag2
(g3
(I0
tp307
g5
tp308
Rp309
(I1
(I1
tp310
g12
I00
S'\x9b\x84H\xdd\x07,V@'
p311
tp312
bag2
(g3
(I0
tp313
g5
tp314
Rp315
(I1
(I1
tp316
g12
I00
S'\xe9\xea\xd2\x86\xf4\xb4V@'
p317
tp318
bag2
(g3
(I0
tp319
g5
tp320
Rp321
(I1
(I1
tp322
g12
I00
S'\t\x1eSu\x13@W@'
p323
tp324
bag2
(g3
(I0
tp325
g5
tp326
Rp327
(I1
(I1
tp328
g12
I00
S'>WX\xa7l\xcdW@'
p329
tp330
bag2
(g3
(I0
tp331
g5
tp332
Rp333
(I1
(I1
tp334
g12
I00
S'6!\xb0B\x08]X@'
p335
tp336
bag2
(g3
(I0
tp337
g5
tp338
Rp339
(I1
(I1
tp340
g12
I00
S'F\x81\x93\x94\xee\xeeX@'
p341
tp342
bag2
(g3
(I0
tp343
g5
tp344
Rp345
(I1
(I1
tp346
g12
I00
S'\x81\x92\xdd\x11(\x83Y@'
p347
tp348
bag2
(g3
(I0
tp349
g5
tp350
Rp351
(I1
(I1
tp352
g12
I00
S'\x8d)KW\xbd\x19Z@'
p353
tp354
bag2
(g3
(I0
tp355
g5
tp356
Rp357
(I1
(I1
tp358
g12
I00
S'\x001\xc3)\xb7\xb2Z@'
p359
tp360
bag2
(g3
(I0
tp361
g5
tp362
Rp363
(I1
(I1
tp364
g12
I00
S'\x8c\x85\xa7v\x1eN[@'
p365
tp366
bag2
(g3
(I0
tp367
g5
tp368
Rp369
(I1
(I1
tp370
g12
I00
S'\xb5\xc8$S\xfc\xeb[@'
p371
tp372
bag2
(g3
(I0
tp373
g5
tp374
Rp375
(I1
(I1
tp376
g12
I00
S'\n8\x04\xfeY\x8c\\@'
p377
tp378
bag2
(g3
(I0
tp379
g5
tp380
Rp381
(I1
(I1
tp382
g12
I00
S'J^s\xdf@/]@'
p383
tp384
bag2
(g3
(I0
tp385
g5
tp386
Rp387
(I1
(I1
tp388
g12
I00
S'\xc3\xbdg\x89\xba\xd4]@'
p389
tp390
bag2
(g3
(I0
tp391
g5
tp392
Rp393
(I1
(I1
tp394
g12
I00
S'\x8f\x03\x08\xb8\xd0|^@'
p395
tp396
bag2
(g3
(I0
tp397
g5
tp398
Rp399
(I1
(I1
tp400
g12
I00
S"\xa9\x8c\x1aR\x8d'_@"
p401
tp402
bag2
(g3
(I0
tp403
g5
tp404
Rp405
(I1
(I1
tp406
g12
I00
S'b\x0byi\xfa\xd4_@'
p407
tp408
bag2
(g3
(I0
tp409
g5
tp410
Rp411
(I1
(I1
tp412
g12
I00
S'Q\x90\xc4\x1d\x91B`@'
p413
tp414
bag2
(g3
(I0
tp415
g5
tp416
Rp417
(I1
(I1
tp418
g12
I00
S'^\xe0\xdc\x98\x07\x9c`@'
p419
tp420
bag2
(g3
(I0
tp421
g5
tp422
Rp423
(I1
(I1
tp424
g12
I00
S'\xc8\x9f\x02\xf1\xe5\xf6`@'
p425
tp426
bag2
(g3
(I0
tp427
g5
tp428
Rp429
(I1
(I1
tp430
g12
I00
S'\x89\xf1\xbb\x871Sa@'
p431
tp432
bag2
(g3
(I0
tp433
g5
tp434
Rp435
(I1
(I1
tp436
g12
I00
S'3o]\xd5\xef\xb0a@'
p437
tp438
bag2
(g3
(I0
tp439
g5
tp440
Rp441
(I1
(I1
tp442
g12
I00
S'(\xcdQi&\x10b@'
p443
tp444
bag2
(g3
(I0
tp445
g5
tp446
Rp447
(I1
(I1
tp448
g12
I00
S'\x10\x99c\xea\xdapb@'
p449
tp450
bag2
(g3
(I0
tp451
g5
tp452
Rp453
(I1
(I1
tp454
g12
I00
S'\x07\x07\t\x17\x13\xd3b@'
p455
tp456
bag2
(g3
(I0
tp457
g5
tp458
Rp459
(I1
(I1
tp460
g12
I00
S'\xbc\xc2\xb1\xc5\xd46c@'
p461
tp462
bag2
(g3
(I0
tp463
g5
tp464
Rp465
(I1
(I1
tp466
g12
I00
S'\x90\xba\x16\xe5%\x9cc@'
p467
tp468
bag2
(g3
(I0
tp469
g5
tp470
Rp471
(I1
(I1
tp472
g12
I00
S'\x19\xdb\x8b|\x0c\x03d@'
p473
tp474
bag2
(g3
(I0
tp475
g5
tp476
Rp477
(I1
(I1
tp478
g12
I00
S'\xaf\xb1S\xac\x8ekd@'
p479
tp480
bag2
(g3
(I0
tp481
g5
tp482
Rp483
(I1
(I1
tp484
g12
I00
S'\xb14\xf7\xad\xb2\xd5d@'
p485
tp486
bag2
(g3
(I0
tp487
g5
tp488
Rp489
(I1
(I1
tp490
g12
I00
S'7\xac\xd1\xd4~Ae@'
p491
tp492
baa(lp493
g2
(g3
(I0
tp494
g5
tp495
Rp496
(I1
(I1
tp497
g12
I00
S')\xe7W_\xa5XQ@'
p498
tp499
bag2
(g3
(I0
tp500
g5
tp501
Rp502
(I1
(I1
tp503
g12
I00
S"'\xf8\xa1\xbf\x82\xccQ@"
p504
tp505
bag2
(g3
(I0
tp506
g5
tp507
Rp508
(I1
(I1
tp509
g12
I00
S'\xef\x17l\xe51BR@'
p510
tp511
bag2
(g3
(I0
tp512
g5
tp513
Rp514
(I1
(I1
tp515
g12
I00
S'T\xfd\xe7\x86\xb9\xb9R@'
p516
tp517
bag2
(g3
(I0
tp518
g5
tp519
Rp520
(I1
(I1
tp521
g12
I00
S'\xfe\xa1\xf3w 3S@'
p522
tp523
bag2
(g3
(I0
tp524
g5
tp525
Rp526
(I1
(I1
tp527
g12
I00
S'`)d\xaam\xaeS@'
p528
tp529
bag2
(g3
(I0
tp530
g5
tp531
Rp532
(I1
(I1
tp533
g12
I00
S'a\xabT.\xa8+T@'
p534
tp535
bag2
(g3
(I0
tp536
g5
tp537
Rp538
(I1
(I1
tp539
g12
I00
S'\xcf\xb5x2\xd7\xaaT@'
p540
tp541
bag2
(g3
(I0
tp542
g5
tp543
Rp544
(I1
(I1
tp545
g12
I00
S'=[r\x04\x02,U@'
p546
tp547
bag2
(g3
(I0
tp548
g5
tp549
Rp550
(I1
(I1
tp551
g12
I00
S'G\xa9+\x110\xafU@'
p552
tp553
bag2
(g3
(I0
tp554
g5
tp555
Rp556
(I1
(I1
tp557
g12
I00
S'\x92c3\xe5h4V@'
p558
tp559
bag2
(g3
(I0
tp560
g5
tp561
Rp562
(I1
(I1
tp563
g12
I00
S'\x1f\xe4\x1c-\xb4\xbbV@'
p564
tp565
bag2
(g3
(I0
tp566
g5
tp567
Rp568
(I1
(I1
tp569
g12
I00
S'\xaf\x04\xe3\xb5\x19EW@'
p570
tp571
bag2
(g3
(I0
tp572
g5
tp573
Rp574
(I1
(I1
tp575
g12
I00
S'\xff\xf7Mm\xa1\xd0W@'
p576
tp577
bag2
(g3
(I0
tp578
g5
tp579
Rp580
(I1
(I1
tp581
g12
I00
S'\x17"\x02bS^X@'
p582
tp583
bag2
(g3
(I0
tp584
g5
tp585
Rp586
(I1
(I1
tp587
g12
I00
S'\xc3G\xed\xc37\xeeX@'
p588
tp589
bag2
(g3
(I0
tp590
g5
tp591
Rp592
(I1
(I1
tp593
g12
I00
S'\x9cm\x8b\x9e_\x80Y@'
p594
tp595
bag2
(g3
(I0
tp596
g5
tp597
Rp598
(I1
(I1
tp599
g12
I00
S'[d\x8b*\xee\x14Z@'
p600
tp601
bag2
(g3
(I0
tp602
g5
tp603
Rp604
(I1
(I1
tp605
g12
I00
S'\x82\xd0\x8f\x01\xec\xabZ@'
p606
tp607
bag2
(g3
(I0
tp608
g5
tp609
Rp610
(I1
(I1
tp611
g12
I00
S'b\xbap\xebaE[@'
p612
tp613
bag2
(g3
(I0
tp614
g5
tp615
Rp616
(I1
(I1
tp617
g12
I00
S'\x19\xb66\xdeX\xe1[@'
p618
tp619
bag2
(g3
(I0
tp620
g5
tp621
Rp622
(I1
(I1
tp623
g12
I00
S'\x016%\xfe\xd9\x7f\\@'
p624
tp625
bag2
(g3
(I0
tp626
g5
tp627
Rp628
(I1
(I1
tp629
g12
I00
S'9\xa7\xd2\x9d\xee ]@'
p630
tp631
bag2
(g3
(I0
tp632
g5
tp633
Rp634
(I1
(I1
tp635
g12
I00
S'\xb2*M>\xa0\xc4]@'
p636
tp637
bag2
(g3
(I0
tp638
g5
tp639
Rp640
(I1
(I1
tp641
g12
I00
S'\x08\xe7J\x8f\xf8j^@'
p642
tp643
bag2
(g3
(I0
tp644
g5
tp645
Rp646
(I1
(I1
tp647
g12
I00
S'\xd4\x12eo\x01\x14_@'
p648
tp649
bag2
(g3
(I0
tp650
g5
tp651
Rp652
(I1
(I1
tp653
g12
I00
S'\xcc\xf4\\\xec\xc4\xbf_@'
p654
tp655
bag2
(g3
(I0
tp656
g5
tp657
Rp658
(I1
(I1
tp659
g12
I00
S'!\x18\xb5\xa1&7`@'
p660
tp661
bag2
(g3
(I0
tp662
g5
tp663
Rp664
(I1
(I1
tp665
g12
I00
S'\xf7\xe4\xc8p\xd2\x8f`@'
p666
tp667
bag2
(g3
(I0
tp668
g5
tp669
Rp670
(I1
(I1
tp671
g12
I00
S'\x98\xb1\x022\xeb\xe9`@'
p672
tp673
bag2
(g3
(I0
tp674
g5
tp675
Rp676
(I1
(I1
tp677
g12
I00
S'\xcf\x95QLvEa@'
p678
tp679
bag2
(g3
(I0
tp680
g5
tp681
Rp682
(I1
(I1
tp683
g12
I00
S'\xe2\xdb\x11?y\xa2a@'
p684
tp685
bag2
(g3
(I0
tp686
g5
tp687
Rp688
(I1
(I1
tp689
g12
I00
S'\xf6\xff]\xa2\xf9\x00b@'
p690
tp691
bag2
(g3
(I0
tp692
g5
tp693
Rp694
(I1
(I1
tp695
g12
I00
S"M\x12O'\xfd`b@"
p696
tp697
bag2
(g3
(I0
tp698
g5
tp699
Rp700
(I1
(I1
tp701
g12
I00
S'\x7f+9\x98\x89\xc2b@'
p702
tp703
bag2
(g3
(I0
tp704
g5
tp705
Rp706
(I1
(I1
tp707
g12
I00
S'\x02\xcf\xef\xd8\xa4%c@'
p708
tp709
bag2
(g3
(I0
tp710
g5
tp711
Rp712
(I1
(I1
tp713
g12
I00
S'iL\r\xe7T\x8ac@'
p714
tp715
bag2
(g3
(I0
tp716
g5
tp717
Rp718
(I1
(I1
tp719
g12
I00
S'\xea\x06=\xda\x9f\xf0c@'
p720
tp721
bag2
(g3
(I0
tp722
g5
tp723
Rp724
(I1
(I1
tp725
g12
I00
S'v\x8d\x88\xe4\x8bXd@'
p726
tp727
bag2
(g3
(I0
tp728
g5
tp729
Rp730
(I1
(I1
tp731
g12
I00
S'\x1fp\xa7R\x1f\xc2d@'
p732
tp733
bag2
(g3
(I0
tp734
g5
tp735
Rp736
(I1
(I1
tp737
g12
I00
S'\xb9\xc1Q\x8c`-e@'
p738
tp739
bag2
(g3
(I0
tp740
g5
tp741
Rp742
(I1
(I1
tp743
g12
I00
S'U\xc8\x87\x15V\x9ae@'
p744
tp745
bag2
(g3
(I0
tp746
g5
tp747
Rp748
(I1
(I1
tp749
g12
I00
S'r\x11\x18\x8c\x06\tf@'
p750
tp751
baa(lp752
g2
(g3
(I0
tp753
g5
tp754
Rp755
(I1
(I1
tp756
g12
I00
S'\xe0\xd8yzX\xf9P@'
p757
tp758
bag2
(g3
(I0
tp759
g5
tp760
Rp761
(I1
(I1
tp762
g12
I00
S'"\xa1iHfkQ@'
p763
tp764
bag2
(g3
(I0
tp765
g5
tp766
Rp767
(I1
(I1
tp768
g12
I00
S'\xa38\xa0\x87K\xdfQ@'
p769
tp770
bag2
(g3
(I0
tp771
g5
tp772
Rp773
(I1
(I1
tp774
g12
I00
S'\x8c\x9e\n\xf7\x0eUR@'
p775
tp776
bag2
(g3
(I0
tp777
g5
tp778
Rp779
(I1
(I1
tp780
g12
I00
S'~\x03\xe3u\xb7\xccR@'
p781
tp782
bag2
(g3
(I0
tp783
g5
tp784
Rp785
(I1
(I1
tp786
g12
I00
S'\x8d^\xe5\x03LFS@'
p787
tp788
bag2
(g3
(I0
tp789
g5
tp790
Rp791
(I1
(I1
tp792
g12
I00
S'&\xcb\x89\xc1\xd3\xc1S@'
p793
tp794
bag2
(g3
(I0
tp795
g5
tp796
Rp797
(I1
(I1
tp798
g12
I00
S'seD\xf0U?T@'
p799
tp800
bag2
(g3
(I0
tp801
g5
tp802
Rp803
(I1
(I1
tp804
g12
I00
S'}^\xca\xf2\xd9\xbeT@'
p805
tp806
bag2
(g3
(I0
tp807
g5
tp808
Rp809
(I1
(I1
tp810
g12
I00
S'\x05\x06\\Mg@U@'
p811
tp812
bag2
(g3
(I0
tp813
g5
tp814
Rp815
(I1
(I1
tp816
g12
I00
S'C\x8c\x13\xa6\x05\xc4U@'
p817
tp818
bag2
(g3
(I0
tp819
g5
tp820
Rp821
(I1
(I1
tp822
g12
I00
S'3B8\xc5\xbcIV@'
p823
tp824
bag2
(g3
(I0
tp825
g5
tp826
Rp827
(I1
(I1
tp828
g12
I00
S'\xae#\x96\x95\x94\xd1V@'
p829
tp830
bag2
(g3
(I0
tp831
g5
tp832
Rp833
(I1
(I1
tp834
g12
I00
S'\x13{\xd9$\x95[W@'
p835
tp836
bag2
(g3
(I0
tp837
g5
tp838
Rp839
(I1
(I1
tp840
g12
I00
S'%s\xee\xa3\xc6\xe7W@'
p841
tp842
bag2
(g3
(I0
tp843
g5
tp844
Rp845
(I1
(I1
tp846
g12
I00
S'\x9epdg1vX@'
p847
tp848
bag2
(g3
(I0
tp849
g5
tp850
Rp851
(I1
(I1
tp852
g12
I00
S'\x9c\x11\xd5\xe7\xdd\x06Y@'
p853
tp854
bag2
(g3
(I0
tp855
g5
tp856
Rp857
(I1
(I1
tp858
g12
I00
S'R\xb6N\xc2\xd4\x99Y@'
p859
tp860
bag2
(g3
(I0
tp861
g5
tp862
Rp863
(I1
(I1
tp864
g12
I00
S'\x02{\xc2\xb8\x1e/Z@'
p865
tp866
bag2
(g3
(I0
tp867
g5
tp868
Rp869
(I1
(I1
tp870
g12
I00
S'{\x90u\xb2\xc4\xc6Z@'
p871
tp872
bag2
(g3
(I0
tp873
g5
tp874
Rp875
(I1
(I1
tp876
g12
I00
S'\xd3\xe4u\xbc\xcf`[@'
p877
tp878
bag2
(g3
(I0
tp879
g5
tp880
Rp881
(I1
(I1
tp882
g12
I00
S'\x87\x13\x12\nI\xfd[@'
p883
tp884
bag2
(g3
(I0
tp885
g5
tp886
Rp887
(I1
(I1
tp888
g12
I00
S'\x07\x98T\xf59\x9c\\@'
p889
tp890
bag2
(g3
(I0
tp891
g5
tp892
Rp893
(I1
(I1
tp894
g12
I00
S'BC\x82\xff\xab=]@'
p895
tp896
bag2
(g3
(I0
tp897
g5
tp898
Rp899
(I1
(I1
tp900
g12
I00
S'W\xf8\x9b\xd1\xa8\xe1]@'
p901
tp902
bag2
(g3
(I0
tp903
g5
tp904
Rp905
(I1
(I1
tp906
g12
I00
S'\xb9\xb9\xe3<:\x88^@'
p907
tp908
bag2
(g3
(I0
tp909
g5
tp910
Rp911
(I1
(I1
tp912
g12
I00
S'\x96\x13e;j1_@'
p913
tp914
bag2
(g3
(I0
tp915
g5
tp916
Rp917
(I1
(I1
tp918
g12
I00
S'\xcb\xf4\x80\xf0B\xdd_@'
p919
tp920
baa(lp921
g2
(g3
(I0
tp922
g5
tp923
Rp924
(I1
(I1
tp925
g12
I00
S'\x15I\x15\xa7~\xa4P@'
p926
tp927
bag2
(g3
(I0
tp928
g5
tp929
Rp930
(I1
(I1
tp931
g12
I00
S'\x0f\x8e>`@\x13Q@'
p932
tp933
bag2
(g3
(I0
tp934
g5
tp935
Rp936
(I1
(I1
tp937
g12
I00
S'<(\xde\xd7\xbe\x83Q@'
p938
tp939
bag2
(g3
(I0
tp940
g5
tp941
Rp942
(I1
(I1
tp943
g12
I00
S'/\x06<\x88\x00\xf6Q@'
p944
tp945
bag2
(g3
(I0
tp946
g5
tp947
Rp948
(I1
(I1
tp949
g12
I00
S'"\x87D\x07\x0cjR@'
p950
tp951
bag2
(g3
(I0
tp952
g5
tp953
Rp954
(I1
(I1
tp955
g12
I00
S'g\xdb\xd3\x06\xe8\xdfR@'
p956
tp957
bag2
(g3
(I0
tp958
g5
tp959
Rp960
(I1
(I1
tp961
g12
I00
S'\x95F\x1bU\x9bWS@'
p962
tp963
bag2
(g3
(I0
tp964
g5
tp965
Rp966
(I1
(I1
tp967
g12
I00
S'T\xd5\xdc\xdc,\xd1S@'
p968
tp969
bag2
(g3
(I0
tp970
g5
tp971
Rp972
(I1
(I1
tp973
g12
I00
S'\x90\xd3e\x8b\xaaLT@'
p974
tp975
bag2
(g3
(I0
tp976
g5
tp977
Rp978
(I1
(I1
tp979
g12
I00
S'\x90\xacfi-\xcaT@'
p980
tp981
bag2
(g3
(I0
tp982
g5
tp983
Rp984
(I1
(I1
tp985
g12
I00
S'\xa9\xe7x\xcc\xbcIU@'
p986
tp987
bag2
(g3
(I0
tp988
g5
tp989
Rp990
(I1
(I1
tp991
g12
I00
S'\x1a\x06\x96.`\xcbU@'
p992
tp993
bag2
(g3
(I0
tp994
g5
tp995
Rp996
(I1
(I1
tp997
g12
I00
S'=\x16B.\x1fOV@'
p998
tp999
bag2
(g3
(I0
tp1000
g5
tp1001
Rp1002
(I1
(I1
tp1003
g12
I00
S'Gs\xbd\x8e\x01\xd5V@'
p1004
tp1005
bag2
(g3
(I0
tp1006
g5
tp1007
Rp1008
(I1
(I1
tp1009
g12
I00
S'\x8eI=8\x0f]W@'
p1010
tp1011
bag2
(g3
(I0
tp1012
g5
tp1013
Rp1014
(I1
(I1
tp1015
g12
I00
S'O\x82*8P\xe7W@'
p1016
tp1017
bag2
(g3
(I0
tp1018
g5
tp1019
Rp1020
(I1
(I1
tp1021
g12
I00
S'\x80\xc3f\xc1\xccsX@'
p1022
tp1023
bag2
(g3
(I0
tp1024
g5
tp1025
Rp1026
(I1
(I1
tp1027
g12
I00
S'\xcb8\x97,\x8d\x02Y@'
p1028
tp1029
bag2
(g3
(I0
tp1030
g5
tp1031
Rp1032
(I1
(I1
tp1033
g12
I00
S'S\xe2t\xf8\x99\x93Y@'
p1034
tp1035
bag2
(g3
(I0
tp1036
g5
tp1037
Rp1038
(I1
(I1
tp1039
g12
I00
S'\xb3,"\xca\xfb&Z@'
p1040
tp1041
bag2
(g3
(I0
tp1042
g5
tp1043
Rp1044
(I1
(I1
tp1045
g12
I00
S'\xa1\x9b\x85m\xbb\xbcZ@'
p1046
tp1047
bag2
(g3
(I0
tp1048
g5
tp1049
Rp1050
(I1
(I1
tp1051
g12
I00
S'\x1dV\xa9\xd5\xe1T[@'
p1052
tp1053
bag2
(g3
(I0
tp1054
g5
tp1055
Rp1056
(I1
(I1
tp1057
g12
I00
S'\r\x94L\x1dx\xef[@'
p1058
tp1059
bag2
(g3
(I0
tp1060
g5
tp1061
Rp1062
(I1
(I1
tp1063
g12
I00
S'\xd4\xb8\xe2\x86\x87\x8c\\@'
p1064
tp1065
bag2
(g3
(I0
tp1066
g5
tp1067
Rp1068
(I1
(I1
tp1069
g12
I00
S'\x85\xf1A}\x19,]@'
p1070
tp1071
bag2
(g3
(I0
tp1072
g5
tp1073
Rp1074
(I1
(I1
tp1075
g12
I00
S's^\x13\x947\xce]@'
p1076
tp1077
bag2
(g3
(I0
tp1078
g5
tp1079
Rp1080
(I1
(I1
tp1081
g12
I00
S'\xc7\xc2G\x88\xebr^@'
p1082
tp1083
bag2
(g3
(I0
tp1084
g5
tp1085
Rp1086
(I1
(I1
tp1087
g12
I00
S'\xd3\x89\x90@?\x1a_@'
p1088
tp1089
bag2
(g3
(I0
tp1090
g5
tp1091
Rp1092
(I1
(I1
tp1093
g12
I00
S'{\xf9\xdc\xcd<\xc4_@'
p1094
tp1095
bag2
(g3
(I0
tp1096
g5
tp1097
Rp1098
(I1
(I1
tp1099
g12
I00
S'\xb8\xb7\xed5w8`@'
p1100
tp1101
bag2
(g3
(I0
tp1102
g5
tp1103
Rp1104
(I1
(I1
tp1105
g12
I00
S'%\xf5\x93A/\x90`@'
p1106
tp1107
bag2
(g3
(I0
tp1108
g5
tp1109
Rp1110
(I1
(I1
tp1111
g12
I00
S'\x02\x97\x86\xd1K\xe9`@'
p1112
tp1113
bag2
(g3
(I0
tp1114
g5
tp1115
Rp1116
(I1
(I1
tp1117
g12
I00
S'\xde\x008F\xd2Ca@'
p1118
tp1119
bag2
(g3
(I0
tp1120
g5
tp1121
Rp1122
(I1
(I1
tp1123
g12
I00
S'\xd9[\xaa\x15\xc8\x9fa@'
p1124
tp1125
bag2
(g3
(I0
tp1126
g5
tp1127
Rp1128
(I1
(I1
tp1129
g12
I00
S'$\x10\x9f\xcc2\xfda@'
p1130
tp1131
bag2
(g3
(I0
tp1132
g5
tp1133
Rp1134
(I1
(I1
tp1135
g12
I00
S'~\x93\xe2\x0e\x18\\b@'
p1136
tp1137
bag2
(g3
(I0
tp1138
g5
tp1139
Rp1140
(I1
(I1
tp1141
g12
I00
S'\xce\xf9\x99\x97}\xbcb@'
p1142
tp1143
bag2
(g3
(I0
tp1144
g5
tp1145
Rp1146
(I1
(I1
tp1147
g12
I00
S'\\B\x929i\x1ec@'
p1148
tp1149
bag2
(g3
(I0
tp1150
g5
tp1151
Rp1152
(I1
(I1
tp1153
g12
I00
S'\xc3\\\x91\xdf\xe0\x81c@'
p1154
tp1155
bag2
(g3
(I0
tp1156
g5
tp1157
Rp1158
(I1
(I1
tp1159
g12
I00
S'\x1a\xe1\xa8\x8c\xea\xe6c@'
p1160
tp1161
bag2
(g3
(I0
tp1162
g5
tp1163
Rp1164
(I1
(I1
tp1165
g12
I00
S'\xfbv\x8a\\\x8cMd@'
p1166
tp1167
bag2
(g3
(I0
tp1168
g5
tp1169
Rp1170
(I1
(I1
tp1171
g12
I00
S'\xb4\xe7\xdd\x83\xcc\xb5d@'
p1172
tp1173
bag2
(g3
(I0
tp1174
g5
tp1175
Rp1176
(I1
(I1
tp1177
g12
I00
S'\xce\xd7\x98P\xb1\x1fe@'
p1178
tp1179
bag2
(g3
(I0
tp1180
g5
tp1181
Rp1182
(I1
(I1
tp1183
g12
I00
S']$X*A\x8be@'
p1184
tp1185
bag2
(g3
(I0
tp1186
g5
tp1187
Rp1188
(I1
(I1
tp1189
g12
I00
S'!J\xf8\x92\x82\xf8e@'
p1190
tp1191
bag2
(g3
(I0
tp1192
g5
tp1193
Rp1194
(I1
(I1
tp1195
g12
I00
S"'P\x8d&|gf@"
p1196
tp1197
bag2
(g3
(I0
tp1198
g5
tp1199
Rp1200
(I1
(I1
tp1201
g12
I00
S'\x89,\xee\x9b4\xd8f@'
p1202
tp1203
bag2
(g3
(I0
tp1204
g5
tp1205
Rp1206
(I1
(I1
tp1207
g12
I00
S'&\xcb\x15\xc5\xb2Jg@'
p1208
tp1209
bag2
(g3
(I0
tp1210
g5
tp1211
Rp1212
(I1
(I1
tp1213
g12
I00
S'\x06\xda\x85\x8f\xfd\xbeg@'
p1214
tp1215
bag2
(g3
(I0
tp1216
g5
tp1217
Rp1218
(I1
(I1
tp1219
g12
I00
S'\xbd]\xab\x04\x1c5h@'
p1220
tp1221
bag2
(g3
(I0
tp1222
g5
tp1223
Rp1224
(I1
(I1
tp1225
g12
I00
S'e\x10EJ\x15\xadh@'
p1226
tp1227
bag2
(g3
(I0
tp1228
g5
tp1229
Rp1230
(I1
(I1
tp1231
g12
I00
S'\x13\x8e\xcb\xa2\xf0&i@'
p1232
tp1233
bag2
(g3
(I0
tp1234
g5
tp1235
Rp1236
(I1
(I1
tp1237
g12
I00
S'\xedQ\xdbm\xb5\xa2i@'
p1238
tp1239
bag2
(g3
(I0
tp1240
g5
tp1241
Rp1242
(I1
(I1
tp1243
g12
I00
S'H\x87\xa0(k j@'
p1244
tp1245
bag2
(g3
(I0
tp1246
g5
tp1247
Rp1248
(I1
(I1
tp1249
g12
I00
S'r\xb2Dn\x19\xa0j@'
p1250
tp1251
bag2
(g3
(I0
tp1252
g5
tp1253
Rp1254
(I1
(I1
tp1255
g12
I00
S'\x0c5^\xf8\xc7!k@'
p1256
tp1257
bag2
(g3
(I0
tp1258
g5
tp1259
Rp1260
(I1
(I1
tp1261
g12
I00
S'\x07\xb2a\x9f~\xa5k@'
p1262
tp1263
bag2
(g3
(I0
tp1264
g5
tp1265
Rp1266
(I1
(I1
tp1267
g12
I00
S'\x99U\x15[E+l@'
p1268
tp1269
bag2
(g3
(I0
tp1270
g5
tp1271
Rp1272
(I1
(I1
tp1273
g12
I00
S'\xa8\x05\x06C$\xb3l@'
p1274
tp1275
bag2
(g3
(I0
tp1276
g5
tp1277
Rp1278
(I1
(I1
tp1279
g12
I00
S'^\x7f\xfe\x8e#=m@'
p1280
tp1281
bag2
(g3
(I0
tp1282
g5
tp1283
Rp1284
(I1
(I1
tp1285
g12
I00
S'\xd2f\x80\x97K\xc9m@'
p1286
tp1287
bag2
(g3
(I0
tp1288
g5
tp1289
Rp1290
(I1
(I1
tp1291
g12
I00
S'\xd0M?\xd6\xa4Wn@'
p1292
tp1293
bag2
(g3
(I0
tp1294
g5
tp1295
Rp1296
(I1
(I1
tp1297
g12
I00
S'\x08\xb7\x9d\xe67\xe8n@'
p1298
tp1299
bag2
(g3
(I0
tp1300
g5
tp1301
Rp1302
(I1
(I1
tp1303
g12
I00
S'\x05\x1b,\x86\r{o@'
p1304
tp1305
bag2
(g3
(I0
tp1306
g5
tp1307
Rp1308
(I1
(I1
tp1309
g12
I00
S'\x00=\x96J\x17\x08p@'
p1310
tp1311
bag2
(g3
(I0
tp1312
g5
tp1313
Rp1314
(I1
(I1
tp1315
g12
I00
S'\xbf\x95\x89\x0b\xd2Sp@'
p1316
tp1317
bag2
(g3
(I0
tp1318
g5
tp1319
Rp1320
(I1
(I1
tp1321
g12
I00
S'\xc1\xaa\x85\x99\xbb\xa0p@'
p1322
tp1323
bag2
(g3
(I0
tp1324
g5
tp1325
Rp1326
(I1
(I1
tp1327
g12
I00
S'\x81J?\x9a\xd8\xeep@'
p1328
tp1329
bag2
(g3
(I0
tp1330
g5
tp1331
Rp1332
(I1
(I1
tp1333
g12
I00
S'\x88b\xcf\xc5->q@'
p1334
tp1335
bag2
(g3
(I0
tp1336
g5
tp1337
Rp1338
(I1
(I1
tp1339
g12
I00
S'\xa6\xf5\xf8\xe6\xbf\x8eq@'
p1340
tp1341
bag2
(g3
(I0
tp1342
g5
tp1343
Rp1344
(I1
(I1
tp1345
g12
I00
S'%(p\xdb\x93\xe0q@'
p1346
tp1347
bag2
(g3
(I0
tp1348
g5
tp1349
Rp1350
(I1
(I1
tp1351
g12
I00
S'me"\x94\xae3r@'
p1352
tp1353
bag2
(g3
(I0
tp1354
g5
tp1355
Rp1356
(I1
(I1
tp1357
g12
I00
S'\x9e\xa2\x7f\x15\x15\x88r@'
p1358
tp1359
bag2
(g3
(I0
tp1360
g5
tp1361
Rp1362
(I1
(I1
tp1363
g12
I00
S'\xc6\xc1\xc4w\xcc\xddr@'
p1364
tp1365
bag2
(g3
(I0
tp1366
g5
tp1367
Rp1368
(I1
(I1
tp1369
g12
I00
S'f\x19G\xe7\xd94s@'
p1370
tp1371
bag2
(g3
(I0
tp1372
g5
tp1373
Rp1374
(I1
(I1
tp1375
g12
I00
S'\x1b$\xc1\xa4B\x8ds@'
p1376
tp1377
bag2
(g3
(I0
tp1378
g5
tp1379
Rp1380
(I1
(I1
tp1381
g12
I00
S'F\\\xa0\x05\x0c\xe7s@'
p1382
tp1383
bag2
(g3
(I0
tp1384
g5
tp1385
Rp1386
(I1
(I1
tp1387
g12
I00
S'\xb1GTt;Bt@'
p1388
tp1389
bag2
(g3
(I0
tp1390
g5
tp1391
Rp1392
(I1
(I1
tp1393
g12
I00
S':\xb7\x9ep\xd6\x9et@'
p1394
tp1395
bag2
(g3
(I0
tp1396
g5
tp1397
Rp1398
(I1
(I1
tp1399
g12
I00
S'\xb2>\xe5\x8f\xe2\xfct@'
p1400
tp1401
bag2
(g3
(I0
tp1402
g5
tp1403
Rp1404
(I1
(I1
tp1405
g12
I00
S'\x18\xe9\x83}e\\u@'
p1406
tp1407
bag2
(g3
(I0
tp1408
g5
tp1409
Rp1410
(I1
(I1
tp1411
g12
I00
S'\x89-!\xfbd\xbdu@'
p1412
tp1413
bag2
(g3
(I0
tp1414
g5
tp1415
Rp1416
(I1
(I1
tp1417
g12
I00
S'7)\x03\xe1\xe6\x1fv@'
p1418
tp1419
bag2
(g3
(I0
tp1420
g5
tp1421
Rp1422
(I1
(I1
tp1423
g12
I00
S'\xf2"f\x1e\xf1\x83v@'
p1424
tp1425
bag2
(g3
(I0
tp1426
g5
tp1427
Rp1428
(I1
(I1
tp1429
g12
I00
S'\xac\\\xd4\xb9\x89\xe9v@'
p1430
tp1431
bag2
(g3
(I0
tp1432
g5
tp1433
Rp1434
(I1
(I1
tp1435
g12
I00
S'\xb77\x7f\xd1\xb6Pw@'
p1436
tp1437
bag2
(g3
(I0
tp1438
g5
tp1439
Rp1440
(I1
(I1
tp1441
g12
I00
S'J\xb0\x99\x9b~\xb9w@'
p1442
tp1443
bag2
(g3
(I0
tp1444
g5
tp1445
Rp1446
(I1
(I1
tp1447
g12
I00
S'-5\xb4f\xe7#x@'
p1448
tp1449
bag2
(g3
(I0
tp1450
g5
tp1451
Rp1452
(I1
(I1
tp1453
g12
I00
S'[\xe0\x19\x9a\xf7\x8fx@'
p1454
tp1455
bag2
(g3
(I0
tp1456
g5
tp1457
Rp1458
(I1
(I1
tp1459
g12
I00
S'\x81\x15/\xb6\xb5\xfdx@'
p1460
tp1461
bag2
(g3
(I0
tp1462
g5
tp1463
Rp1464
(I1
(I1
tp1465
g12
I00
S'a\x8b\xd1T(my@'
p1466
tp1467
bag2
(g3
(I0
tp1468
g5
tp1469
Rp1470
(I1
(I1
tp1471
g12
I00
S',\xc5\xb9)V\xdey@'
p1472
tp1473
baa(lp1474
g2
(g3
(I0
tp1475
g5
tp1476
Rp1477
(I1
(I1
tp1478
g12
I00
S'\x94\xdch\x85\xa0OP@'
p1479
tp1480
bag2
(g3
(I0
tp1481
g5
tp1482
Rp1483
(I1
(I1
tp1484
g12
I00
S'/[\xe5,\xb7\xbcP@'
p1485
tp1486
bag2
(g3
(I0
tp1487
g5
tp1488
Rp1489
(I1
(I1
tp1490
g12
I00
S'\xe4\x0fT\x8c\x8d+Q@'
p1491
tp1492
bag2
(g3
(I0
tp1493
g5
tp1494
Rp1495
(I1
(I1
tp1496
g12
I00
S'\xa3\xf4`#*\x9cQ@'
p1497
tp1498
bag2
(g3
(I0
tp1499
g5
tp1500
Rp1501
(I1
(I1
tp1502
g12
I00
S'\xed\xb0\xca\x8e\x93\x0eR@'
p1503
tp1504
bag2
(g3
(I0
tp1505
g5
tp1506
Rp1507
(I1
(I1
tp1508
g12
I00
S'k\xef\xa8\x88\xd0\x82R@'
p1509
tp1510
bag2
(g3
(I0
tp1511
g5
tp1512
Rp1513
(I1
(I1
tp1514
g12
I00
S'\xb6V\xac\xe8\xe7\xf8R@'
p1515
tp1516
bag2
(g3
(I0
tp1517
g5
tp1518
Rp1519
(I1
(I1
tp1520
g12
I00
S'Kk\x88\xa4\xe0pS@'
p1521
tp1522
bag2
(g3
(I0
tp1523
g5
tp1524
Rp1525
(I1
(I1
tp1526
g12
I00
S'\xa4\xb8\x17\xd0\xc1\xeaS@'
p1527
tp1528
bag2
(g3
(I0
tp1529
g5
tp1530
Rp1531
(I1
(I1
tp1532
g12
I00
S'\x07\x8a\xb1\x9d\x92fT@'
p1533
tp1534
bag2
(g3
(I0
tp1535
g5
tp1536
Rp1537
(I1
(I1
tp1538
g12
I00
S't\x0f\xf2^Z\xe4T@'
p1539
tp1540
bag2
(g3
(I0
tp1541
g5
tp1542
Rp1543
(I1
(I1
tp1544
g12
I00
S'\t\xf0\x83\x84 dU@'
p1545
tp1546
bag2
(g3
(I0
tp1547
g5
tp1548
Rp1549
(I1
(I1
tp1550
g12
I00
S'\xcfO\xb1\x9e\xec\xe5U@'
p1551
tp1552
bag2
(g3
(I0
tp1553
g5
tp1554
Rp1555
(I1
(I1
tp1556
g12
I00
S'k\xf3\xc2]\xc6iV@'
p1557
tp1558
bag2
(g3
(I0
tp1559
g5
tp1560
Rp1561
(I1
(I1
tp1562
g12
I00
S'V1b\x92\xb5\xefV@'
p1563
tp1564
bag2
(g3
(I0
tp1565
g5
tp1566
Rp1567
(I1
(I1
tp1568
g12
I00
S'_\xa5\xfd-\xc2wW@'
p1569
tp1570
bag2
(g3
(I0
tp1571
g5
tp1572
Rp1573
(I1
(I1
tp1574
g12
I00
S'\x9c\x9c0C\xf4\x01X@'
p1575
tp1576
bag2
(g3
(I0
tp1577
g5
tp1578
Rp1579
(I1
(I1
tp1580
g12
I00
S'-1-\x06T\x8eX@'
p1581
tp1582
bag2
(g3
(I0
tp1583
g5
tp1584
Rp1585
(I1
(I1
tp1586
g12
I00
S'`\x0e)\xcd\xe9\x1cY@'
p1587
tp1588
bag2
(g3
(I0
tp1589
g5
tp1590
Rp1591
(I1
(I1
tp1592
g12
I00
S'\xd8\xd6\xcc\x10\xbe\xadY@'
p1593
tp1594
bag2
(g3
(I0
tp1595
g5
tp1596
Rp1597
(I1
(I1
tp1598
g12
I00
S"Q'\xa6l\xd9@Z@"
p1599
tp1600
bag2
(g3
(I0
tp1601
g5
tp1602
Rp1603
(I1
(I1
tp1604
g12
I00
S'\x961\x9c\x9fD\xd6Z@'
p1605
tp1606
bag2
(g3
(I0
tp1607
g5
tp1608
Rp1609
(I1
(I1
tp1610
g12
I00
S'\x15\xecf\x8c\x08n[@'
p1611
tp1612
bag2
(g3
(I0
tp1613
g5
tp1614
Rp1615
(I1
(I1
tp1616
g12
I00
S'E\xd3\x08:.\x08\\@'
p1617
tp1618
bag2
(g3
(I0
tp1619
g5
tp1620
Rp1621
(I1
(I1
tp1622
g12
I00
S'\xe5:K\xd4\xbe\xa4\\@'
p1623
tp1624
bag2
(g3
(I0
tp1625
g5
tp1626
Rp1627
(I1
(I1
tp1628
g12
I00
S'\xba-=\xac\xc3C]@'
p1629
tp1630
bag2
(g3
(I0
tp1631
g5
tp1632
Rp1633
(I1
(I1
tp1634
g12
I00
S'.\xdb\xb48F\xe5]@'
p1635
tp1636
bag2
(g3
(I0
tp1637
g5
tp1638
Rp1639
(I1
(I1
tp1640
g12
I00
S'\xcb\x92\xd3\x16P\x89^@'
p1641
tp1642
bag2
(g3
(I0
tp1643
g5
tp1644
Rp1645
(I1
(I1
tp1646
g12
I00
S'\x89\x0e\x8c\n\xeb/_@'
p1647
tp1648
bag2
(g3
(I0
tp1649
g5
tp1650
Rp1651
(I1
(I1
tp1652
g12
I00
S'sL-\xff \xd9_@'
p1653
tp1654
bag2
(g3
(I0
tp1655
g5
tp1656
Rp1657
(I1
(I1
tp1658
g12
I00
S'\xb1\x80\x99\xc4\x82B`@'
p1659
tp1660
bag2
(g3
(I0
tp1661
g5
tp1662
Rp1663
(I1
(I1
tp1664
g12
I00
S'G\x15\xd2\xa7\xd7\x99`@'
p1665
tp1666
bag2
(g3
(I0
tp1667
g5
tp1668
Rp1669
(I1
(I1
tp1670
g12
I00
S'\x08\xaf2t\x94\xf2`@'
p1671
tp1672
bag2
(g3
(I0
tp1673
g5
tp1674
Rp1675
(I1
(I1
tp1676
g12
I00
S'\xdfn\x8b\x8b\xbeLa@'
p1677
tp1678
bag2
(g3
(I0
tp1679
g5
tp1680
Rp1681
(I1
(I1
tp1682
g12
I00
S'\xb4)\xcaf[\xa8a@'
p1683
tp1684
bag2
(g3
(I0
tp1685
g5
tp1686
Rp1687
(I1
(I1
tp1688
g12
I00
S'\x80`=\x96p\x05b@'
p1689
tp1690
bag2
(g3
(I0
tp1691
g5
tp1692
Rp1693
(I1
(I1
tp1694
g12
I00
S'\xfb\x0c\xda\xc1\x03db@'
p1695
tp1696
bag2
(g3
(I0
tp1697
g5
tp1698
Rp1699
(I1
(I1
tp1700
g12
I00
S'\xb0\x1f\x83\xa9\x1a\xc4b@'
p1701
tp1702
bag2
(g3
(I0
tp1703
g5
tp1704
Rp1705
(I1
(I1
tp1706
g12
I00
S'\xf9US%\xbb%c@'
p1707
tp1708
bag2
(g3
(I0
tp1709
g5
tp1710
Rp1711
(I1
(I1
tp1712
g12
I00
S'\x17\n\xe9%\xeb\x88c@'
p1713
tp1714
bag2
(g3
(I0
tp1715
g5
tp1716
Rp1717
(I1
(I1
tp1718
g12
I00
S'\xd5\x0c\xb4\xb4\xb0\xedc@'
p1719
tp1720
bag2
(g3
(I0
tp1721
g5
tp1722
Rp1723
(I1
(I1
tp1724
g12
I00
S'\xc0}E\xf4\x11Td@'
p1725
tp1726
bag2
(g3
(I0
tp1727
g5
tp1728
Rp1729
(I1
(I1
tp1730
g12
I00
S'\xdb\x9b\xa1 \x15\xbcd@'
p1731
tp1732
bag2
(g3
(I0
tp1733
g5
tp1734
Rp1735
(I1
(I1
tp1736
g12
I00
S'\x8d\x89\x93\x8f\xc0%e@'
p1737
tp1738
bag2
(g3
(I0
tp1739
g5
tp1740
Rp1741
(I1
(I1
tp1742
g12
I00
S'R\xff\x02\xb1\x1a\x91e@'
p1743
tp1744
bag2
(g3
(I0
tp1745
g5
tp1746
Rp1747
(I1
(I1
tp1748
g12
I00
S'u\xe9K\x0f*\xfee@'
p1749
tp1750
bag2
(g3
(I0
tp1751
g5
tp1752
Rp1753
(I1
(I1
tp1754
g12
I00
S'\xb9\xed\x97O\xf5lf@'
p1755
tp1756
bag2
(g3
(I0
tp1757
g5
tp1758
Rp1759
(I1
(I1
tp1760
g12
I00
S'\x8b\xd692\x83\xddf@'
p1761
tp1762
bag2
(g3
(I0
tp1763
g5
tp1764
Rp1765
(I1
(I1
tp1766
g12
I00
S'\xe9Ae\x92\xdaOg@'
p1767
tp1768
bag2
(g3
(I0
tp1769
g5
tp1770
Rp1771
(I1
(I1
tp1772
g12
I00
S'M]\xebg\x02\xc4g@'
p1773
tp1774
bag2
(g3
(I0
tp1775
g5
tp1776
Rp1777
(I1
(I1
tp1778
g12
I00
S'\xce\x8c\xe2\xc6\x01:h@'
p1779
tp1780
bag2
(g3
(I0
tp1781
g5
tp1782
Rp1783
(I1
(I1
tp1784
g12
I00
S'(V\t\xe0\xdf\xb1h@'
p1785
tp1786
bag2
(g3
(I0
tp1787
g5
tp1788
Rp1789
(I1
(I1
tp1790
g12
I00
S'\x974+\x01\xa4+i@'
p1791
tp1792
bag2
(g3
(I0
tp1793
g5
tp1794
Rp1795
(I1
(I1
tp1796
g12
I00
S']T\x87\x95U\xa7i@'
p1797
tp1798
bag2
(g3
(I0
tp1799
g5
tp1800
Rp1801
(I1
(I1
tp1802
g12
I00
S'\xb769&\xfc$j@'
p1803
tp1804
bag2
(g3
(I0
tp1805
g5
tp1806
Rp1807
(I1
(I1
tp1808
g12
I00
S'\x9f>\xa3Z\x9f\xa4j@'
p1809
tp1810
bag2
(g3
(I0
tp1811
g5
tp1812
Rp1813
(I1
(I1
tp1814
g12
I00
S"L'\xdb\xf8F&k@"
p1815
tp1816
bag2
(g3
(I0
tp1817
g5
tp1818
Rp1819
(I1
(I1
tp1820
g12
I00
S'ye\x18\xe6\xfa\xa9k@'
p1821
tp1822
bag2
(g3
(I0
tp1823
g5
tp1824
Rp1825
(I1
(I1
tp1826
g12
I00
S"\x1bu$'\xc3/l@"
p1827
tp1828
bag2
(g3
(I0
tp1829
g5
tp1830
Rp1831
(I1
(I1
tp1832
g12
I00
S'\xb0\x15\xcd\xe0\xa7\xb7l@'
p1833
tp1834
bag2
(g3
(I0
tp1835
g5
tp1836
Rp1837
(I1
(I1
tp1838
g12
I00
S'\x11wXX\xb1Am@'
p1839
tp1840
bag2
(g3
(I0
tp1841
g5
tp1842
Rp1843
(I1
(I1
tp1844
g12
I00
S'|Y\xfb\xf3\xe7\xcdm@'
p1845
tp1846
bag2
(g3
(I0
tp1847
g5
tp1848
Rp1849
(I1
(I1
tp1850
g12
I00
S'\xbc#Q;T\\n@'
p1851
tp1852
bag2
(g3
(I0
tp1853
g5
tp1854
Rp1855
(I1
(I1
tp1856
g12
I00
S'\x8c\xf2\xd5\xd7\xfe\xecn@'
p1857
tp1858
bag2
(g3
(I0
tp1859
g5
tp1860
Rp1861
(I1
(I1
tp1862
g12
I00
S'\xb6\xa4b\x95\xf0\x7fo@'
p1863
tp1864
bag2
(g3
(I0
tp1865
g5
tp1866
Rp1867
(I1
(I1
tp1868
g12
I00
S'\xd2sU1\x99\np@'
p1869
tp1870
bag2
(g3
(I0
tp1871
g5
tp1872
Rp1873
(I1
(I1
tp1874
g12
I00
S'7\xa4\xde\xa8fVp@'
p1875
tp1876
baa(lp1877
g2
(g3
(I0
tp1878
g5
tp1879
Rp1880
(I1
(I1
tp1881
g12
I00
S'\x9a\x19n\x95\x94\x01P@'
p1882
tp1883
bag2
(g3
(I0
tp1884
g5
tp1885
Rp1886
(I1
(I1
tp1887
g12
I00
S'V\xdb`\x1f\xcekP@'
p1888
tp1889
bag2
(g3
(I0
tp1890
g5
tp1891
Rp1892
(I1
(I1
tp1893
g12
I00
S'ge\xbd\x96\xc4\xd7P@'
p1894
tp1895
bag2
(g3
(I0
tp1896
g5
tp1897
Rp1898
(I1
(I1
tp1899
g12
I00
S'\xcb\x85fD~EQ@'
p1900
tp1901
bag2
(g3
(I0
tp1902
g5
tp1903
Rp1904
(I1
(I1
tp1905
g12
I00
S'T\x92\x89\x8f\x01\xb5Q@'
p1906
tp1907
bag2
(g3
(I0
tp1908
g5
tp1909
Rp1910
(I1
(I1
tp1911
g12
I00
S'\x01\xaf\xc8\xfdT&R@'
p1912
tp1913
bag2
(g3
(I0
tp1914
g5
tp1915
Rp1916
(I1
(I1
tp1917
g12
I00
S'\xd1"j3\x7f\x99R@'
p1918
tp1919
bag2
(g3
(I0
tp1920
g5
tp1921
Rp1922
(I1
(I1
tp1923
g12
I00
S'"{\x8c\xf3\x86\x0eS@'
p1924
tp1925
bag2
(g3
(I0
tp1926
g5
tp1927
Rp1928
(I1
(I1
tp1929
g12
I00
S'\x94C_ s\x85S@'
p1930
tp1931
bag2
(g3
(I0
tp1932
g5
tp1933
Rp1934
(I1
(I1
tp1935
g12
I00
S'\xad\x1d`\xbbJ\xfeS@'
p1936
tp1937
bag2
(g3
(I0
tp1938
g5
tp1939
Rp1940
(I1
(I1
tp1941
g12
I00
S'I\x08\x9c\xe5\x14yT@'
p1942
tp1943
bag2
(g3
(I0
tp1944
g5
tp1945
Rp1946
(I1
(I1
tp1947
g12
I00
S'G\xab\xf4\xdf\xd8\xf5T@'
p1948
tp1949
bag2
(g3
(I0
tp1950
g5
tp1951
Rp1952
(I1
(I1
tp1953
g12
I00
S'\xc1>n\x0b\x9etU@'
p1954
tp1955
bag2
(g3
(I0
tp1956
g5
tp1957
Rp1958
(I1
(I1
tp1959
g12
I00
S'HKn\xe9k\xf5U@'
p1960
tp1961
bag2
(g3
(I0
tp1962
g5
tp1963
Rp1964
(I1
(I1
tp1965
g12
I00
S"+'\x1a\x1cJxV@"
p1966
tp1967
bag2
(g3
(I0
tp1968
g5
tp1969
Rp1970
(I1
(I1
tp1971
g12
I00
S'eE\xa6f@\xfdV@'
p1972
tp1973
bag2
(g3
(I0
tp1974
g5
tp1975
Rp1976
(I1
(I1
tp1977
g12
I00
S'\x8d\x86\xad\xadV\x84W@'
p1978
tp1979
bag2
(g3
(I0
tp1980
g5
tp1981
Rp1982
(I1
(I1
tp1983
g12
I00
S'\xc1\xcf\x8b\xf7\x94\rX@'
p1984
tp1985
bag2
(g3
(I0
tp1986
g5
tp1987
Rp1988
(I1
(I1
tp1989
g12
I00
S'\x11\xd1\xbbl\x03\x99X@'
p1990
tp1991
bag2
(g3
(I0
tp1992
g5
tp1993
Rp1994
(I1
(I1
tp1995
g12
I00
S'\xf8\xe67X\xaa&Y@'
p1996
tp1997
bag2
(g3
(I0
tp1998
g5
tp1999
Rp2000
(I1
(I1
tp2001
g12
I00
S"O\x04\xde'\x92\xb6Y@"
p2002
tp2003
bag2
(g3
(I0
tp2004
g5
tp2005
Rp2006
(I1
(I1
tp2007
g12
I00
S'\xd2\x93\xd6l\xc3HZ@'
p2008
tp2009
bag2
(g3
(I0
tp2010
g5
tp2011
Rp2012
(I1
(I1
tp2013
g12
I00
S'\xdeA\xfe\xdbF\xddZ@'
p2014
tp2015
bag2
(g3
(I0
tp2016
g5
tp2017
Rp2018
(I1
(I1
tp2019
g12
I00
S's\xa0RN%t[@'
p2020
tp2021
bag2
(g3
(I0
tp2022
g5
tp2023
Rp2024
(I1
(I1
tp2025
g12
I00
S'\xcf\x98a\xc1g\r\\@'
p2026
tp2027
bag2
(g3
(I0
tp2028
g5
tp2029
Rp2030
(I1
(I1
tp2031
g12
I00
S'\x95"\xc2W\x17\xa9\\@'
p2032
tp2033
bag2
(g3
(I0
tp2034
g5
tp2035
Rp2036
(I1
(I1
tp2037
g12
I00
S'\xcd\x10\x8fY=G]@'
p2038
tp2039
bag2
(g3
(I0
tp2040
g5
tp2041
Rp2042
(I1
(I1
tp2043
g12
I00
S'\xb7\x0c\xd34\xe3\xe7]@'
p2044
tp2045
bag2
(g3
(I0
tp2046
g5
tp2047
Rp2048
(I1
(I1
tp2049
g12
I00
S'\xae\xe9\x03~\x12\x8b^@'
p2050
tp2051
bag2
(g3
(I0
tp2052
g5
tp2053
Rp2054
(I1
(I1
tp2055
g12
I00
S'b\x96\x80\xf0\xd40_@'
p2056
tp2057
bag2
(g3
(I0
tp2058
g5
tp2059
Rp2060
(I1
(I1
tp2061
g12
I00
S'%\xa9\x11o4\xd9_@'
p2062
tp2063
bag2
(g3
(I0
tp2064
g5
tp2065
Rp2066
(I1
(I1
tp2067
g12
I00
S'\xfeB6\x82\x1dB`@'
p2068
tp2069
bag2
(g3
(I0
tp2070
g5
tp2071
Rp2072
(I1
(I1
tp2073
g12
I00
S'\xf4\x8e\xdcq\xf9\x98`@'
p2074
tp2075
baa(lp2076
g2
(g3
(I0
tp2077
g5
tp2078
Rp2079
(I1
(I1
tp2080
g12
I00
S't\xb7\x90hpmO@'
p2081
tp2082
bag2
(g3
(I0
tp2083
g5
tp2084
Rp2085
(I1
(I1
tp2086
g12
I00
S'\xb5\x90a]+\x1fP@'
p2087
tp2088
bag2
(g3
(I0
tp2089
g5
tp2090
Rp2091
(I1
(I1
tp2092
g12
I00
S'a%A;H\x89P@'
p2093
tp2094
bag2
(g3
(I0
tp2095
g5
tp2096
Rp2097
(I1
(I1
tp2098
g12
I00
S'og\x12\xfa\x14\xf5P@'
p2099
tp2100
bag2
(g3
(I0
tp2101
g5
tp2102
Rp2103
(I1
(I1
tp2104
g12
I00
S'\xe8\xe7[\xe0\x97bQ@'
p2105
tp2106
bag2
(g3
(I0
tp2107
g5
tp2108
Rp2109
(I1
(I1
tp2110
g12
I00
S'\xb5\xfcDO\xd7\xd1Q@'
p2111
tp2112
bag2
(g3
(I0
tp2113
g5
tp2114
Rp2115
(I1
(I1
tp2116
g12
I00
S'5\xa7\xdc\xc2\xd9BR@'
p2117
tp2118
bag2
(g3
(I0
tp2119
g5
tp2120
Rp2121
(I1
(I1
tp2122
g12
I00
S'&\xfcV\xd2\xa5\xb5R@'
p2123
tp2124
bag2
(g3
(I0
tp2125
g5
tp2126
Rp2127
(I1
(I1
tp2128
g12
I00
S'\x19@\x860B*S@'
p2129
tp2130
bag2
(g3
(I0
tp2131
g5
tp2132
Rp2133
(I1
(I1
tp2134
g12
I00
S'\xa2\xad\xfb\xab\xb5\xa0S@'
p2135
tp2136
bag2
(g3
(I0
tp2137
g5
tp2138
Rp2139
(I1
(I1
tp2140
g12
I00
S'\xf4,h/\x07\x19T@'
p2141
tp2142
bag2
(g3
(I0
tp2143
g5
tp2144
Rp2145
(I1
(I1
tp2146
g12
I00
S'\xa6\xa7\xef\xc1=\x93T@'
p2147
tp2148
bag2
(g3
(I0
tp2149
g5
tp2150
Rp2151
(I1
(I1
tp2152
g12
I00
S'R\x85~\x87`\x0fU@'
p2153
tp2154
bag2
(g3
(I0
tp2155
g5
tp2156
Rp2157
(I1
(I1
tp2158
g12
I00
S'WI!\xc1v\x8dU@'
p2159
tp2160
bag2
(g3
(I0
tp2161
g5
tp2162
Rp2163
(I1
(I1
tp2164
g12
I00
S'\xe2J^\xcd\x87\rV@'
p2165
tp2166
bag2
(g3
(I0
tp2167
g5
tp2168
Rp2169
(I1
(I1
tp2170
g12
I00
S'8\x81\x91(\x9b\x8fV@'
p2171
tp2172
bag2
(g3
(I0
tp2173
g5
tp2174
Rp2175
(I1
(I1
tp2176
g12
I00
S'\xf7^Jm\xb8\x13W@'
p2177
tp2178
bag2
(g3
(I0
tp2179
g5
tp2180
Rp2181
(I1
(I1
tp2182
g12
I00
S'\xb8\xb7\xabT\xe7\x99W@'
p2183
tp2184
bag2
(g3
(I0
tp2185
g5
tp2186
Rp2187
(I1
(I1
tp2188
g12
I00
S'$\xac\xcd\xb6/"X@'
p2189
tp2190
bag2
(g3
(I0
tp2191
g5
tp2192
Rp2193
(I1
(I1
tp2194
g12
I00
S'(\x99!\x8b\x99\xacX@'
p2195
tp2196
bag2
(g3
(I0
tp2197
g5
tp2198
Rp2199
(I1
(I1
tp2200
g12
I00
S'\x7f\x07\xd8\xe8,9Y@'
p2201
tp2202
bag2
(g3
(I0
tp2203
g5
tp2204
Rp2205
(I1
(I1
tp2206
g12
I00
S'LcF\x07\xf2\xc7Y@'
p2207
tp2208
bag2
(g3
(I0
tp2209
g5
tp2210
Rp2211
(I1
(I1
tp2212
g12
I00
S'\xce\xfdU>\xf1XZ@'
p2213
tp2214
bag2
(g3
(I0
tp2215
g5
tp2216
Rp2217
(I1
(I1
tp2218
g12
I00
S'\x19\xd8\xec\x063\xecZ@'
p2219
tp2220
bag2
(g3
(I0
tp2221
g5
tp2222
Rp2223
(I1
(I1
tp2224
g12
I00
S'z\x1b\x1f\x80\xc4\x81[@'
p2225
tp2226
bag2
(g3
(I0
tp2227
g5
tp2228
Rp2229
(I1
(I1
tp2230
g12
I00
S'\x99\xb8~r\xb9\x19\\@'
p2231
tp2232
bag2
(g3
(I0
tp2233
g5
tp2234
Rp2235
(I1
(I1
tp2236
g12
I00
S'C`\xab\xd9\x1a\xb4\\@'
p2237
tp2238
bag2
(g3
(I0
tp2239
g5
tp2240
Rp2241
(I1
(I1
tp2242
g12
I00
S'\x0b\x1c}\xd6\xf1P]@'
p2243
tp2244
bag2
(g3
(I0
tp2245
g5
tp2246
Rp2247
(I1
(I1
tp2248
g12
I00
S'>\xc6j\xafG\xf0]@'
p2249
tp2250
bag2
(g3
(I0
tp2251
g5
tp2252
Rp2253
(I1
(I1
tp2254
g12
I00
S'\x00\x91\xf3\xd0%\x92^@'
p2255
tp2256
bag2
(g3
(I0
tp2257
g5
tp2258
Rp2259
(I1
(I1
tp2260
g12
I00
S'\x9c\x8a\x0b\xce\x956_@'
p2261
tp2262
bag2
(g3
(I0
tp2263
g5
tp2264
Rp2265
(I1
(I1
tp2266
g12
I00
S'\xe2\x0e\x8b`\xa1\xdd_@'
p2267
tp2268
bag2
(g3
(I0
tp2269
g5
tp2270
Rp2271
(I1
(I1
tp2272
g12
I00
S'\x96\x8b\xd04\xa9C`@'
p2273
tp2274
bag2
(g3
(I0
tp2275
g5
tp2276
Rp2277
(I1
(I1
tp2278
g12
I00
S'\xfe-$y\xd9\x99`@'
p2279
tp2280
bag2
(g3
(I0
tp2281
g5
tp2282
Rp2283
(I1
(I1
tp2284
g12
I00
S'\xcd\x97\xe2\x95f\xf1`@'
p2285
tp2286
bag2
(g3
(I0
tp2287
g5
tp2288
Rp2289
(I1
(I1
tp2290
g12
I00
S'\xbc7\x07\xb8UJa@'
p2291
tp2292
bag2
(g3
(I0
tp2293
g5
tp2294
Rp2295
(I1
(I1
tp2296
g12
I00
S'x..!\xac\xa4a@'
p2297
tp2298
bag2
(g3
(I0
tp2299
g5
tp2300
Rp2301
(I1
(I1
tp2302
g12
I00
S"\xdcc\xd1'o\x00b@"
p2303
tp2304
bag2
(g3
(I0
tp2305
g5
tp2306
Rp2307
(I1
(I1
tp2308
g12
I00
S'\xf9\xcc\x897\xa4]b@'
p2309
tp2310
bag2
(g3
(I0
tp2311
g5
tp2312
Rp2313
(I1
(I1
tp2314
g12
I00
S'\xca\x98\x85\xd1P\xbcb@'
p2315
tp2316
bag2
(g3
(I0
tp2317
g5
tp2318
Rp2319
(I1
(I1
tp2320
g12
I00
S'\xf1}2\x8cz\x1cc@'
p2321
tp2322
bag2
(g3
(I0
tp2323
g5
tp2324
Rp2325
(I1
(I1
tp2326
g12
I00
S"B\xad\x1a\x14'~c@"
p2327
tp2328
bag2
(g3
(I0
tp2329
g5
tp2330
Rp2331
(I1
(I1
tp2332
g12
I00
S'\x17a\xf9+\\\xe1c@'
p2333
tp2334
bag2
(g3
(I0
tp2335
g5
tp2336
Rp2337
(I1
(I1
tp2338
g12
I00
S'(8\x02\xad\x1fFd@'
p2339
tp2340
bag2
(g3
(I0
tp2341
g5
tp2342
Rp2343
(I1
(I1
tp2344
g12
I00
S'\xc9\xfe)\x87w\xacd@'
p2345
tp2346
bag2
(g3
(I0
tp2347
g5
tp2348
Rp2349
(I1
(I1
tp2350
g12
I00
S'\x03\xbdp\xc1i\x14e@'
p2351
tp2352
bag2
(g3
(I0
tp2353
g5
tp2354
Rp2355
(I1
(I1
tp2356
g12
I00
S'\x9a\x00-z\xfc}e@'
p2357
tp2358
bag2
(g3
(I0
tp2359
g5
tp2360
Rp2361
(I1
(I1
tp2362
g12
I00
S'\\bX\xe75\xe9e@'
p2363
tp2364
bag2
(g3
(I0
tp2365
g5
tp2366
Rp2367
(I1
(I1
tp2368
g12
I00
S'=F\xddV\x1cVf@'
p2369
tp2370
bag2
(g3
(I0
tp2371
g5
tp2372
Rp2373
(I1
(I1
tp2374
g12
I00
S'\x07\xd6\xe5.\xb6\xc4f@'
p2375
tp2376
bag2
(g3
(I0
tp2377
g5
tp2378
Rp2379
(I1
(I1
tp2380
g12
I00
S'\x8a6,\xee\t5g@'
p2381
tp2382
bag2
(g3
(I0
tp2383
g5
tp2384
Rp2385
(I1
(I1
tp2386
g12
I00
S'b\xf7K,\x1e\xa7g@'
p2387
tp2388
bag2
(g3
(I0
tp2389
g5
tp2390
Rp2391
(I1
(I1
tp2392
g12
I00
S'\x94\xbd\x14\x9a\xf9\x1ah@'
p2393
tp2394
bag2
(g3
(I0
tp2395
g5
tp2396
Rp2397
(I1
(I1
tp2398
g12
I00
S'n)\xde\x01\xa3\x90h@'
p2399
tp2400
bag2
(g3
(I0
tp2401
g5
tp2402
Rp2403
(I1
(I1
tp2404
g12
I00
S'\xf1\xf3tG!\x08i@'
p2405
tp2406
bag2
(g3
(I0
tp2407
g5
tp2408
Rp2409
(I1
(I1
tp2410
g12
I00
S'\xd8\xfbUi{\x81i@'
p2411
tp2412
bag2
(g3
(I0
tp2413
g5
tp2414
Rp2415
(I1
(I1
tp2416
g12
I00
S'\xdc\xd5\x85\x80\xb8\xfci@'
p2417
tp2418
bag2
(g3
(I0
tp2419
g5
tp2420
Rp2421
(I1
(I1
tp2422
g12
I00
S'\xbf\xf6\xe9\xc0\xdfyj@'
p2423
tp2424
bag2
(g3
(I0
tp2425
g5
tp2426
Rp2427
(I1
(I1
tp2428
g12
I00
S'\xdb\x1a\xa3y\xf8\xf8j@'
p2429
tp2430
bag2
(g3
(I0
tp2431
g5
tp2432
Rp2433
(I1
(I1
tp2434
g12
I00
S'y\xebh\x15\nzk@'
p2435
tp2436
bag2
(g3
(I0
tp2437
g5
tp2438
Rp2439
(I1
(I1
tp2440
g12
I00
S'\xbc\xe2\xe6\x1a\x1c\xfdk@'
p2441
tp2442
bag2
(g3
(I0
tp2443
g5
tp2444
Rp2445
(I1
(I1
tp2446
g12
I00
S'\xefn\x1a-6\x82l@'
p2447
tp2448
bag2
(g3
(I0
tp2449
g5
tp2450
Rp2451
(I1
(I1
tp2452
g12
I00
S'4V\xb2\x0b`\tm@'
p2453
tp2454
bag2
(g3
(I0
tp2455
g5
tp2456
Rp2457
(I1
(I1
tp2458
g12
I00
S'\xaa[o\x93\xa1\x92m@'
p2459
tp2460
bag2
(g3
(I0
tp2461
g5
tp2462
Rp2463
(I1
(I1
tp2464
g12
I00
S"R'\x86\xbe\x02\x1en@"
p2465
tp2466
baa(lp2467
g2
(g3
(I0
tp2468
g5
tp2469
Rp2470
(I1
(I1
tp2471
g12
I00
S'\xc6\x98\xc24\x11\xdcN@'
p2472
tp2473
bag2
(g3
(I0
tp2474
g5
tp2475
Rp2476
(I1
(I1
tp2477
g12
I00
S'\x8bL|@\x08\xa9O@'
p2478
tp2479
bag2
(g3
(I0
tp2480
g5
tp2481
Rp2482
(I1
(I1
tp2483
g12
I00
S'\x15\xa940\xa8<P@'
p2484
tp2485
bag2
(g3
(I0
tp2486
g5
tp2487
Rp2488
(I1
(I1
tp2489
g12
I00
S'\xaf\xc8v\xdbz\xa6P@'
p2490
tp2491
bag2
(g3
(I0
tp2492
g5
tp2493
Rp2494
(I1
(I1
tp2495
g12
I00
S'\xc4\xac\x15N\x02\x12Q@'
p2496
tp2497
bag2
(g3
(I0
tp2498
g5
tp2499
Rp2500
(I1
(I1
tp2501
g12
I00
S'w\x818\xcfD\x7fQ@'
p2502
tp2503
bag2
(g3
(I0
tp2504
g5
tp2505
Rp2506
(I1
(I1
tp2507
g12
I00
S'\x19SV\xc1H\xeeQ@'
p2508
tp2509
bag2
(g3
(I0
tp2510
g5
tp2511
Rp2512
(I1
(I1
tp2513
g12
I00
S'\x85s\x95\xa2\x14_R@'
p2514
tp2515
bag2
(g3
(I0
tp2516
g5
tp2517
Rp2518
(I1
(I1
tp2519
g12
I00
S'"\x91\xb3\x0c\xaf\xd1R@'
p2520
tp2521
bag2
(g3
(I0
tp2522
g5
tp2523
Rp2524
(I1
(I1
tp2525
g12
I00
S'\xd2\x97\x83\xb5\x1eFS@'
p2526
tp2527
bag2
(g3
(I0
tp2528
g5
tp2529
Rp2530
(I1
(I1
tp2531
g12
I00
S'\x0f\xb74oj\xbcS@'
p2532
tp2533
bag2
(g3
(I0
tp2534
g5
tp2535
Rp2536
(I1
(I1
tp2537
g12
I00
S'zc\x9c(\x994T@'
p2538
tp2539
bag2
(g3
(I0
tp2540
g5
tp2541
Rp2542
(I1
(I1
tp2543
g12
I00
S'\xb8L\x83\xed\xb1\xaeT@'
p2544
tp2545
bag2
(g3
(I0
tp2546
g5
tp2547
Rp2548
(I1
(I1
tp2549
g12
I00
S'}<\xb0\xe6\xbb*U@'
p2550
tp2551
bag2
(g3
(I0
tp2552
g5
tp2553
Rp2554
(I1
(I1
tp2555
g12
I00
S'U\xd5\x87Z\xbe\xa8U@'
p2556
tp2557
bag2
(g3
(I0
tp2558
g5
tp2559
Rp2560
(I1
(I1
tp2561
g12
I00
S'\xe9F@\xad\xc0(V@'
p2562
tp2563
bag2
(g3
(I0
tp2564
g5
tp2565
Rp2566
(I1
(I1
tp2567
g12
I00
S'\x9b\xac4a\xca\xaaV@'
p2568
tp2569
bag2
(g3
(I0
tp2570
g5
tp2571
Rp2572
(I1
(I1
tp2573
g12
I00
S'&\xa1:\x17\xe3.W@'
p2574
tp2575
bag2
(g3
(I0
tp2576
g5
tp2577
Rp2578
(I1
(I1
tp2579
g12
I00
S'p\xfc\xf9\x8e\x12\xb5W@'
p2580
tp2581
bag2
(g3
(I0
tp2582
g5
tp2583
Rp2584
(I1
(I1
tp2585
g12
I00
S'\xba\xb1F\xa7`=X@'
p2586
tp2587
bag2
(g3
(I0
tp2588
g5
tp2589
Rp2590
(I1
(I1
tp2591
g12
I00
S'?\xc5|^\xd5\xc7X@'
p2592
tp2593
bag2
(g3
(I0
tp2594
g5
tp2595
Rp2596
(I1
(I1
tp2597
g12
I00
S"'Q\xde\xd2xTY@"
p2598
tp2599
bag2
(g3
(I0
tp2600
g5
tp2601
Rp2602
(I1
(I1
tp2603
g12
I00
S't\x92\xf3BS\xe3Y@'
p2604
tp2605
bag2
(g3
(I0
tp2606
g5
tp2607
Rp2608
(I1
(I1
tp2609
g12
I00
S'I\xf7\xec\rmtZ@'
p2610
tp2611
bag2
(g3
(I0
tp2612
g5
tp2613
Rp2614
(I1
(I1
tp2615
g12
I00
S'\x8c(\x07\xb4\xce\x07[@'
p2616
tp2617
bag2
(g3
(I0
tp2618
g5
tp2619
Rp2620
(I1
(I1
tp2621
g12
I00
S'~\t\xf1\xd6\x80\x9d[@'
p2622
tp2623
bag2
(g3
(I0
tp2624
g5
tp2625
Rp2626
(I1
(I1
tp2627
g12
I00
S'v\xa83:\x8c5\\@'
p2628
tp2629
bag2
(g3
(I0
tp2630
g5
tp2631
Rp2632
(I1
(I1
tp2633
g12
I00
S'\x80\xe4\x9c\xc3\xf9\xcf\\@'
p2634
tp2635
bag2
(g3
(I0
tp2636
g5
tp2637
Rp2638
(I1
(I1
tp2639
g12
I00
S'\xb6\xf2\xab{\xd2l]@'
p2640
tp2641
bag2
(g3
(I0
tp2642
g5
tp2643
Rp2644
(I1
(I1
tp2645
g12
I00
S'\xa5A\xfd\x8d\x1f\x0c^@'
p2646
tp2647
bag2
(g3
(I0
tp2648
g5
tp2649
Rp2650
(I1
(I1
tp2651
g12
I00
S'aG\xbaI\xea\xad^@'
p2652
tp2653
bag2
(g3
(I0
tp2654
g5
tp2655
Rp2656
(I1
(I1
tp2657
g12
I00
S'Y\x81\xba"<R_@'
p2658
tp2659
bag2
(g3
(I0
tp2660
g5
tp2661
Rp2662
(I1
(I1
tp2663
g12
I00
S'\x8a\x98\x85\xae\x1e\xf9_@'
p2664
tp2665
bag2
(g3
(I0
tp2666
g5
tp2667
Rp2668
(I1
(I1
tp2669
g12
I00
S'\x84\x93}\xd5MQ`@'
p2670
tp2671
bag2
(g3
(I0
tp2672
g5
tp2673
Rp2674
(I1
(I1
tp2675
g12
I00
S'R\xad\xfd|^\xa7`@'
p2676
tp2677
bag2
(g3
(I0
tp2678
g5
tp2679
Rp2680
(I1
(I1
tp2681
g12
I00
S'\xbe\xfc\x9eQ\xc6\xfe`@'
p2682
tp2683
bag2
(g3
(I0
tp2684
g5
tp2685
Rp2686
(I1
(I1
tp2687
g12
I00
S'{\x9cfj\x8aWa@'
p2688
tp2689
bag2
(g3
(I0
tp2690
g5
tp2691
Rp2692
(I1
(I1
tp2693
g12
I00
S'\xd16\xc1\xf1\xaf\xb1a@'
p2694
tp2695
bag2
(g3
(I0
tp2696
g5
tp2697
Rp2698
(I1
(I1
tp2699
g12
I00
S';J\xc2%<\rb@'
p2700
tp2701
bag2
(g3
(I0
tp2702
g5
tp2703
Rp2704
(I1
(I1
tp2705
g12
I00
S'\xf1ZdX4jb@'
p2706
tp2707
bag2
(g3
(I0
tp2708
g5
tp2709
Rp2710
(I1
(I1
tp2711
g12
I00
S'\xa1\x11\xca\xef\x9d\xc8b@'
p2712
tp2713
bag2
(g3
(I0
tp2714
g5
tp2715
Rp2716
(I1
(I1
tp2717
g12
I00
S'\x96G\x80f~(c@'
p2718
tp2719
bag2
(g3
(I0
tp2720
g5
tp2721
Rp2722
(I1
(I1
tp2723
g12
I00
S'\x9c\x00\xc1K\xdb\x89c@'
p2724
tp2725
bag2
(g3
(I0
tp2726
g5
tp2727
Rp2728
(I1
(I1
tp2729
g12
I00
S'\xf4R\xb7C\xba\xecc@'
p2730
tp2731
bag2
(g3
(I0
tp2732
g5
tp2733
Rp2734
(I1
(I1
tp2735
g12
I00
S'\xb9=\xc4\x07!Qd@'
p2736
tp2737
bag2
(g3
(I0
tp2738
g5
tp2739
Rp2740
(I1
(I1
tp2741
g12
I00
S'&n\xc4f\x15\xb7d@'
p2742
tp2743
bag2
(g3
(I0
tp2744
g5
tp2745
Rp2746
(I1
(I1
tp2747
g12
I00
S'/\xf4VE\x9d\x1ee@'
p2748
tp2749
bag2
(g3
(I0
tp2750
g5
tp2751
Rp2752
(I1
(I1
tp2753
g12
I00
S'\xfd\xe6$\x9e\xbe\x87e@'
p2754
tp2755
bag2
(g3
(I0
tp2756
g5
tp2757
Rp2758
(I1
(I1
tp2759
g12
I00
S'\xdf\xf9)\x82\x7f\xf2e@'
p2760
tp2761
bag2
(g3
(I0
tp2762
g5
tp2763
Rp2764
(I1
(I1
tp2765
g12
I00
S'N\x02\xfe\x18\xe6^f@'
p2766
tp2767
bag2
(g3
(I0
tp2768
g5
tp2769
Rp2770
(I1
(I1
tp2771
g12
I00
S'\xb4o\x1f\xa1\xf8\xccf@'
p2772
tp2773
bag2
(g3
(I0
tp2774
g5
tp2775
Rp2776
(I1
(I1
tp2777
g12
I00
S'\xad\xb5>p\xbd<g@'
p2778
tp2779
bag2
(g3
(I0
tp2780
g5
tp2781
Rp2782
(I1
(I1
tp2783
g12
I00
S'\x7f\xa9\x8a\xf3:\xaeg@'
p2784
tp2785
bag2
(g3
(I0
tp2786
g5
tp2787
Rp2788
(I1
(I1
tp2789
g12
I00
S'\x91\xd3\xfd\xafw!h@'
p2790
tp2791
bag2
(g3
(I0
tp2792
g5
tp2793
Rp2794
(I1
(I1
tp2795
g12
I00
S'\xb1\xb5\xacBz\x96h@'
p2796
tp2797
bag2
(g3
(I0
tp2798
g5
tp2799
Rp2800
(I1
(I1
tp2801
g12
I00
S'\xfc\x06\x15aI\ri@'
p2802
tp2803
bag2
(g3
(I0
tp2804
g5
tp2805
Rp2806
(I1
(I1
tp2807
g12
I00
S'8\xe6m\xd9\xeb\x85i@'
p2808
tp2809
bag2
(g3
(I0
tp2810
g5
tp2811
Rp2812
(I1
(I1
tp2813
g12
I00
S'\x83\x03\xf9\x92h\x00j@'
p2814
tp2815
bag2
(g3
(I0
tp2816
g5
tp2817
Rp2818
(I1
(I1
tp2819
g12
I00
S'+\xc2T\x8e\xc6|j@'
p2820
tp2821
bag2
(g3
(I0
tp2822
g5
tp2823
Rp2824
(I1
(I1
tp2825
g12
I00
S'\x8eS\xcf\xe5\x0c\xfbj@'
p2826
tp2827
bag2
(g3
(I0
tp2828
g5
tp2829
Rp2830
(I1
(I1
tp2831
g12
I00
S'\xdc\xcb\xba\xcdB{k@'
p2832
tp2833
bag2
(g3
(I0
tp2834
g5
tp2835
Rp2836
(I1
(I1
tp2837
g12
I00
S'\x9a1\xc2\x94o\xfdk@'
p2838
tp2839
bag2
(g3
(I0
tp2840
g5
tp2841
Rp2842
(I1
(I1
tp2843
g12
I00
S'\xbb\x88?\xa4\x9a\x81l@'
p2844
tp2845
bag2
(g3
(I0
tp2846
g5
tp2847
Rp2848
(I1
(I1
tp2849
g12
I00
S'-\xda\x92\x80\xcb\x07m@'
p2850
tp2851
bag2
(g3
(I0
tp2852
g5
tp2853
Rp2854
(I1
(I1
tp2855
g12
I00
S'\xae8z\xc9\t\x90m@'
p2856
tp2857
bag2
(g3
(I0
tp2858
g5
tp2859
Rp2860
(I1
(I1
tp2861
g12
I00
S'\xba\xc3j:]\x1an@'
p2862
tp2863
bag2
(g3
(I0
tp2864
g5
tp2865
Rp2866
(I1
(I1
tp2867
g12
I00
S'g\xa9\xea\xaa\xcd\xa6n@'
p2868
tp2869
bag2
(g3
(I0
tp2870
g5
tp2871
Rp2872
(I1
(I1
tp2873
g12
I00
S"\xf7'\xec\x0ec5o@"
p2874
tp2875
bag2
(g3
(I0
tp2876
g5
tp2877
Rp2878
(I1
(I1
tp2879
g12
I00
S'\xeb\x8f)w%\xc6o@'
p2880
tp2881
bag2
(g3
(I0
tp2882
g5
tp2883
Rp2884
(I1
(I1
tp2885
g12
I00
S'\xad#\xc1\x88\x8e,p@'
p2886
tp2887
bag2
(g3
(I0
tp2888
g5
tp2889
Rp2890
(I1
(I1
tp2891
g12
I00
S'\xa3g\xac\x14)wp@'
p2892
tp2893
bag2
(g3
(I0
tp2894
g5
tp2895
Rp2896
(I1
(I1
tp2897
g12
I00
S'\xd7\xe5\xf8\x93\xe6\xc2p@'
p2898
tp2899
bag2
(g3
(I0
tp2900
g5
tp2901
Rp2902
(I1
(I1
tp2903
g12
I00
S'\x84\x07jJ\xcb\x0fq@'
p2904
tp2905
bag2
(g3
(I0
tp2906
g5
tp2907
Rp2908
(I1
(I1
tp2909
g12
I00
S'\xe6\xd4\x14\x8b\xdb]q@'
p2910
tp2911
bag2
(g3
(I0
tp2912
g5
tp2913
Rp2914
(I1
(I1
tp2915
g12
I00
S'Z\xff\x90\xb8\x1b\xadq@'
p2916
tp2917
bag2
(g3
(I0
tp2918
g5
tp2919
Rp2920
(I1
(I1
tp2921
g12
I00
S'%n*E\x90\xfdq@'
p2922
tp2923
bag2
(g3
(I0
tp2924
g5
tp2925
Rp2926
(I1
(I1
tp2927
g12
I00
S"'N\x13\xb3=Or@"
p2928
tp2929
bag2
(g3
(I0
tp2930
g5
tp2931
Rp2932
(I1
(I1
tp2933
g12
I00
S'\xbf\xa4\x96\x94(\xa2r@'
p2934
tp2935
bag2
(g3
(I0
tp2936
g5
tp2937
Rp2938
(I1
(I1
tp2939
g12
I00
S'\x18fK\x8cU\xf6r@'
p2940
tp2941
bag2
(g3
(I0
tp2942
g5
tp2943
Rp2944
(I1
(I1
tp2945
g12
I00
S'\x18\x0fHM\xc9Ks@'
p2946
tp2947
bag2
(g3
(I0
tp2948
g5
tp2949
Rp2950
(I1
(I1
tp2951
g12
I00
S'\x1b\xc3V\x9b\x88\xa2s@'
p2952
tp2953
bag2
(g3
(I0
tp2954
g5
tp2955
Rp2956
(I1
(I1
tp2957
g12
I00
S'\xab\xed)K\x98\xfas@'
p2958
tp2959
bag2
(g3
(I0
tp2960
g5
tp2961
Rp2962
(I1
(I1
tp2963
g12
I00
S'Ih\x91B\xfdSt@'
p2964
tp2965
bag2
(g3
(I0
tp2966
g5
tp2967
Rp2968
(I1
(I1
tp2969
g12
I00
S'g$\xb0x\xbc\xaet@'
p2970
tp2971
bag2
(g3
(I0
tp2972
g5
tp2973
Rp2974
(I1
(I1
tp2975
g12
I00
S'\x9dY2\xf6\xda\nu@'
p2976
tp2977
bag2
(g3
(I0
tp2978
g5
tp2979
Rp2980
(I1
(I1
tp2981
g12
I00
S'%8\x84\xd5]hu@'
p2982
tp2983
bag2
(g3
(I0
tp2984
g5
tp2985
Rp2986
(I1
(I1
tp2987
g12
I00
S'\x8c\x1f\tCJ\xc7u@'
p2988
tp2989
bag2
(g3
(I0
tp2990
g5
tp2991
Rp2992
(I1
(I1
tp2993
g12
I00
S"\x9cYS}\xa5'v@"
p2994
tp2995
bag2
(g3
(I0
tp2996
g5
tp2997
Rp2998
(I1
(I1
tp2999
g12
I00
S'RY\\\xd5t\x89v@'
p3000
tp3001
bag2
(g3
(I0
tp3002
g5
tp3003
Rp3004
(I1
(I1
tp3005
g12
I00
S'\xca}\xbd\xae\xbd\xecv@'
p3006
tp3007
bag2
(g3
(I0
tp3008
g5
tp3009
Rp3010
(I1
(I1
tp3011
g12
I00
S'\xe7X\xe9\x7f\x85Qw@'
p3012
tp3013
bag2
(g3
(I0
tp3014
g5
tp3015
Rp3016
(I1
(I1
tp3017
g12
I00
S'vye\xd2\xd1\xb7w@'
p3018
tp3019
bag2
(g3
(I0
tp3020
g5
tp3021
Rp3022
(I1
(I1
tp3023
g12
I00
S'\x8e\xb8\x04C\xa8\x1fx@'
p3024
tp3025
bag2
(g3
(I0
tp3026
g5
tp3027
Rp3028
(I1
(I1
tp3029
g12
I00
S'\xc5\t"\x82\x0e\x89x@'
p3030
tp3031
bag2
(g3
(I0
tp3032
g5
tp3033
Rp3034
(I1
(I1
tp3035
g12
I00
S'\xdd\xcd\xdbS\n\xf4x@'
p3036
tp3037
bag2
(g3
(I0
tp3038
g5
tp3039
Rp3040
(I1
(I1
tp3041
g12
I00
S'm\xa7O\x90\xa1`y@'
p3042
tp3043
bag2
(g3
(I0
tp3044
g5
tp3045
Rp3046
(I1
(I1
tp3047
g12
I00
S'\x04\xd1\xd6#\xda\xcey@'
p3048
tp3049
bag2
(g3
(I0
tp3050
g5
tp3051
Rp3052
(I1
(I1
tp3053
g12
I00
S',\xf4B\x0f\xba>z@'
p3054
tp3055
bag2
(g3
(I0
tp3056
g5
tp3057
Rp3058
(I1
(I1
tp3059
g12
I00
S'\xab\x80\x1bhG\xb0z@'
p3060
tp3061
bag2
(g3
(I0
tp3062
g5
tp3063
Rp3064
(I1
(I1
tp3065
g12
I00
S'D\x83\xdbX\x88#{@'
p3066
tp3067
bag2
(g3
(I0
tp3068
g5
tp3069
Rp3070
(I1
(I1
tp3071
g12
I00
S'3\xfb/!\x83\x98{@'
p3072
tp3073
bag2
(g3
(I0
tp3074
g5
tp3075
Rp3076
(I1
(I1
tp3077
g12
I00
S'\x87\xad6\x16>\x0f|@'
p3078
tp3079
bag2
(g3
(I0
tp3080
g5
tp3081
Rp3082
(I1
(I1
tp3083
g12
I00
S'hu\xbd\xa2\xbf\x87|@'
p3084
tp3085
bag2
(g3
(I0
tp3086
g5
tp3087
Rp3088
(I1
(I1
tp3089
g12
I00
S'C\x10\x82G\x0e\x02}@'
p3090
tp3091
bag2
(g3
(I0
tp3092
g5
tp3093
Rp3094
(I1
(I1
tp3095
g12
I00
S'\xcadr\x9b0~}@'
p3096
tp3097
bag2
(g3
(I0
tp3098
g5
tp3099
Rp3100
(I1
(I1
tp3101
g12
I00
S'\x94C\xedK-\xfc}@'
p3102
tp3103
bag2
(g3
(I0
tp3104
g5
tp3105
Rp3106
(I1
(I1
tp3107
g12
I00
S'\x1c\xa0\x03\x1d\x0b|~@'
p3108
tp3109
bag2
(g3
(I0
tp3110
g5
tp3111
Rp3112
(I1
(I1
tp3113
g12
I00
S'\xc4@\xba\xe9\xd0\xfd~@'
p3114
tp3115
bag2
(g3
(I0
tp3116
g5
tp3117
Rp3118
(I1
(I1
tp3119
g12
I00
S'i\xe4K\xa4\x85\x81\x7f@'
p3120
tp3121
bag2
(g3
(I0
tp3122
g5
tp3123
Rp3124
(I1
(I1
tp3125
g12
I00
S'\x00\xee5+\x98\x03\x80@'
p3126
tp3127
bag2
(g3
(I0
tp3128
g5
tp3129
Rp3130
(I1
(I1
tp3131
g12
I00
S'H\x8b\xc4\x10lG\x80@'
p3132
tp3133
bag2
(g3
(I0
tp3134
g5
tp3135
Rp3136
(I1
(I1
tp3137
g12
I00
S'\xed\xce\x88\x1fB\x8c\x80@'
p3138
tp3139
bag2
(g3
(I0
tp3140
g5
tp3141
Rp3142
(I1
(I1
tp3143
g12
I00
S'\xe5@[\x00\x1e\xd2\x80@'
p3144
tp3145
bag2
(g3
(I0
tp3146
g5
tp3147
Rp3148
(I1
(I1
tp3149
g12
I00
S'a\x18Xh\x03\x19\x81@'
p3150
tp3151
bag2
(g3
(I0
tp3152
g5
tp3153
Rp3154
(I1
(I1
tp3155
g12
I00
S'Z\x9d\x01\x19\xf6`\x81@'
p3156
tp3157
bag2
(g3
(I0
tp3158
g5
tp3159
Rp3160
(I1
(I1
tp3161
g12
I00
S'j\xbeb\xe0\xf9\xa9\x81@'
p3162
tp3163
bag2
(g3
(I0
tp3164
g5
tp3165
Rp3166
(I1
(I1
tp3167
g12
I00
S'\xd0\xd91\x99\x12\xf4\x81@'
p3168
tp3169
bag2
(g3
(I0
tp3170
g5
tp3171
Rp3172
(I1
(I1
tp3173
g12
I00
S'f\xb8\xf3*D?\x82@'
p3174
tp3175
bag2
(g3
(I0
tp3176
g5
tp3177
Rp3178
(I1
(I1
tp3179
g12
I00
S'H\xb9\x1e\x8a\x92\x8b\x82@'
p3180
tp3181
bag2
(g3
(I0
tp3182
g5
tp3183
Rp3184
(I1
(I1
tp3185
g12
I00
S'\xd0,>\xb8\x01\xd9\x82@'
p3186
tp3187
bag2
(g3
(I0
tp3188
g5
tp3189
Rp3190
(I1
(I1
tp3191
g12
I00
S"\x89\xdd\x15\xc4\x95'\x83@"
p3192
tp3193
bag2
(g3
(I0
tp3194
g5
tp3195
Rp3196
(I1
(I1
tp3197
g12
I00
S'\x98\xc5\xc5\xc9Rw\x83@'
p3198
tp3199
bag2
(g3
(I0
tp3200
g5
tp3201
Rp3202
(I1
(I1
tp3203
g12
I00
S'\x17\xef\xed\xf2<\xc8\x83@'
p3204
tp3205
bag2
(g3
(I0
tp3206
g5
tp3207
Rp3208
(I1
(I1
tp3209
g12
I00
S'\xc2}\xd2vX\x1a\x84@'
p3210
tp3211
bag2
(g3
(I0
tp3212
g5
tp3213
Rp3214
(I1
(I1
tp3215
g12
I00
S'H\xe0\x7f\x9a\xa9m\x84@'
p3216
tp3217
bag2
(g3
(I0
tp3218
g5
tp3219
Rp3220
(I1
(I1
tp3221
g12
I00
S"{'\xef\xb04\xc2\x84@"
p3222
tp3223
bag2
(g3
(I0
tp3224
g5
tp3225
Rp3226
(I1
(I1
tp3227
g12
I00
S'\x86\x81*\x1b\xfe\x17\x85@'
p3228
tp3229
bag2
(g3
(I0
tp3230
g5
tp3231
Rp3232
(I1
(I1
tp3233
g12
I00
S'@\xd7qH\no\x85@'
p3234
tp3235
bag2
(g3
(I0
tp3236
g5
tp3237
Rp3238
(I1
(I1
tp3239
g12
I00
S'\x96\x89_\xb6]\xc7\x85@'
p3240
tp3241
bag2
(g3
(I0
tp3242
g5
tp3243
Rp3244
(I1
(I1
tp3245
g12
I00
S'\xf4L\r\xf1\xfc \x86@'
p3246
tp3247
bag2
(g3
(I0
tp3248
g5
tp3249
Rp3250
(I1
(I1
tp3251
g12
I00
S'\x84 9\x93\xec{\x86@'
p3252
tp3253
bag2
(g3
(I0
tp3254
g5
tp3255
Rp3256
(I1
(I1
tp3257
g12
I00
S'\xf0^jF1\xd8\x86@'
p3258
tp3259
bag2
(g3
(I0
tp3260
g5
tp3261
Rp3262
(I1
(I1
tp3263
g12
I00
S'T\xe6\x16\xc3\xcf5\x87@'
p3264
tp3265
bag2
(g3
(I0
tp3266
g5
tp3267
Rp3268
(I1
(I1
tp3269
g12
I00
S'\xe6T\xc8\xd0\xcc\x94\x87@'
p3270
tp3271
bag2
(g3
(I0
tp3272
g5
tp3273
Rp3274
(I1
(I1
tp3275
g12
I00
S'\xbcWAF-\xf5\x87@'
p3276
tp3277
bag2
(g3
(I0
tp3278
g5
tp3279
Rp3280
(I1
(I1
tp3281
g12
I00
S'\x0e\t\xa3\t\xf6V\x88@'
p3282
tp3283
bag2
(g3
(I0
tp3284
g5
tp3285
Rp3286
(I1
(I1
tp3287
g12
I00
S'*[\x92\x10,\xba\x88@'
p3288
tp3289
bag2
(g3
(I0
tp3290
g5
tp3291
Rp3292
(I1
(I1
tp3293
g12
I00
S'4\x8d]`\xd4\x1e\x89@'
p3294
tp3295
bag2
(g3
(I0
tp3296
g5
tp3297
Rp3298
(I1
(I1
tp3299
g12
I00
S'\xbb\xa6!\x0e\xf4\x84\x89@'
p3300
tp3301
bag2
(g3
(I0
tp3302
g5
tp3303
Rp3304
(I1
(I1
tp3305
g12
I00
S'\x03\xf7\xef>\x90\xec\x89@'
p3306
tp3307
bag2
(g3
(I0
tp3308
g5
tp3309
Rp3310
(I1
(I1
tp3311
g12
I00
S"\xcb\x94\xf3'\xaeU\x8a@"
p3312
tp3313
bag2
(g3
(I0
tp3314
g5
tp3315
Rp3316
(I1
(I1
tp3317
g12
I00
S'5\xdb\x96\x0eS\xc0\x8a@'
p3318
tp3319
bag2
(g3
(I0
tp3320
g5
tp3321
Rp3322
(I1
(I1
tp3323
g12
I00
S'X\xe0\xa8H\x84,\x8b@'
p3324
tp3325
bag2
(g3
(I0
tp3326
g5
tp3327
Rp3328
(I1
(I1
tp3329
g12
I00
S'\xe1\xe1\x82<G\x9a\x8b@'
p3330
tp3331
baa.