(lp0
(lp1
cnumpy.core.multiarray
_reconstruct
p2
(cnumpy
ndarray
p3
(I0
tp4
S'b'
p5
tp6
Rp7
(I1
(I1
tp8
cnumpy
dtype
p9
(S'f8'
p10
I0
I1
tp11
Rp12
(I3
S'<'
p13
NNNI-1
I-1
I0
tp14
bI00
S'*-N\\0,H@'
p15
tp16
bag2
(g3
(I0
tp17
g5
tp18
Rp19
(I1
(I1
tp20
g12
I00
S'\xc5i\xf5r\xdd\x88H@'
p21
tp22
bag2
(g3
(I0
tp23
g5
tp24
Rp25
(I1
(I1
tp26
g12
I00
S'\xa3\xf9T\xb3\x02\xe6H@'
p27
tp28
bag2
(g3
(I0
tp29
g5
tp30
Rp31
(I1
(I1
tp32
g12
I00
S'\xb1\x9d\xbb\xcc\x9dCI@'
p33
tp34
bag2
(g3
(I0
tp35
g5
tp36
Rp37
(I1
(I1
tp38
g12
I00
S'\xee\xdcIU\xac\xa1I@'
p39
tp40
bag2
(g3
(I0
tp41
g5
tp42
Rp43
(I1
(I1
tp44
g12
I00
S'\xe4\xd2;\xc9+\x00J@'
p45
tp46
bag2
(g3
(I0
tp47
g5
tp48
Rp49
(I1
(I1
tp50
g12
I00
S'\x12\xe9.\x8a\x19_J@'
p51
tp52
bag2
(g3
(I0
tp53
g5
tp54
Rp55
(I1
(I1
tp56
g12
I00
S'\xf2cc\xder\xbeJ@'
p57
tp58
bag2
(g3
(I0
tp59
g5
tp60
Rp61
(I1
(I1
tp62
g12
I00
S'\xdb\xab\xf9\xef4\x1eK@'
p63
tp64
bag2
(g3
(I0
tp65
g5
tp66
Rp67
(I1
(I1
tp68
g12
I00
S'\xa59+\xcc\\~K@'
p69
tp70
bag2
(g3
(I0
tp71
g5
tp72
Rp73
(I1
(I1
tp74
g12
I00
S'\x91\x0e\x7fb\xe7\xdeK@'
p75
tp76
bag2
(g3
(I0
tp77
g5
tp78
Rp79
(I1
(I1
tp80
g12
I00
S'\x8a\x9e\xf9\x83\xd1?L@'
p81
tp82
bag2
(g3
(I0
tp83
g5
tp84
Rp85
(I1
(I1
tp86
g12
I00
S'x\x13H\xe2\x17\xa1L@'
p87
tp88
bag2
(g3
(I0
tp89
g5
tp90
Rp91
(I1
(I1
tp92
g12
I00
S'\xf6\xcf\xe6\x0e\xb7\x02M@'
p93
tp94
bag2
(g3
(I0
tp95
g5
tp96
Rp97
(I1
(I1
tp98
g12
I00
S'V\x17Cz\xabdM@'
p99
tp100
bag2
(g3
(I0
tp101
g5
tp102
Rp103
(I1
(I1
tp104
g12
I00
S't\xc0\xd7r\xf1\xc6M@'
p105
tp106
bag2
(g3
(I0
tp107
g5
tp108
Rp109
(I1
(I1
tp110
g12
I00
S'|\xd8D$\x85)N@'
p111
tp112
bag2
(g3
(I0
tp113
g5
tp114
Rp115
(I1
(I1
tp116
g12
I00
S'W\x1ab\x96b\x8cN@'
p117
tp118
bag2
(g3
(I0
tp119
g5
tp120
Rp121
(I1
(I1
tp122
g12
I00
S'\x18\x1fL\xac\x85\xefN@'
p123
tp124
bag2
(g3
(I0
tp125
g5
tp126
Rp127
(I1
(I1
tp128
g12
I00
S'\\+l#\xeaRO@'
p129
tp130
bag2
(g3
(I0
tp131
g5
tp132
Rp133
(I1
(I1
tp134
g12
I00
S'&}z\x92\x8b\xb6O@'
p135
tp136
bag2
(g3
(I0
tp137
g5
tp138
Rp139
(I1
(I1
tp140
g12
I00
S'\xe7aT\r:\rP@'
p141
tp142
bag2
(g3
(I0
tp143
g5
tp144
Rp145
(I1
(I1
tp146
g12
I00
S'\x9bx\xc0mP?P@'
p147
tp148
bag2
(g3
(I0
tp149
g5
tp150
Rp151
(I1
(I1
tp152
g12
I00
S'5\x05\xf1\xd6\x86qP@'
p153
tp154
bag2
(g3
(I0
tp155
g5
tp156
Rp157
(I1
(I1
tp158
g12
I00
S'\x95GR"\xdb\xa3P@'
p159
tp160
bag2
(g3
(I0
tp161
g5
tp162
Rp163
(I1
(I1
tp164
g12
I00
S'CR\xf0\x15K\xd6P@'
p165
tp166
bag2
(g3
(I0
tp167
g5
tp168
Rp169
(I1
(I1
tp170
g12
I00
S')F\xdac\xd4\x08Q@'
p171
tp172
bag2
(g3
(I0
tp173
g5
tp174
Rp175
(I1
(I1
tp176
g12
I00
S'\xe1R\x84\xa9t;Q@'
p177
tp178
bag2
(g3
(I0
tp179
g5
tp180
Rp181
(I1
(I1
tp182
g12
I00
S'\xded\x9bo)nQ@'
p183
tp184
bag2
(g3
(I0
tp185
g5
tp186
Rp187
(I1
(I1
tp188
g12
I00
S'\xa1\x06a)\xf0\xa0Q@'
p189
tp190
bag2
(g3
(I0
tp191
g5
tp192
Rp193
(I1
(I1
tp194
g12
I00
S'\x1f\xbf\xa93\xc6\xd3Q@'
p195
tp196
bag2
(g3
(I0
tp197
g5
tp198
Rp199
(I1
(I1
tp200
g12
I00
S'q\xb5\xc7\xd4\xa8\x06R@'
p201
tp202
bag2
(g3
(I0
tp203
g5
tp204
Rp205
(I1
(I1
tp206
g12
I00
S'\xe2\xc8\xd2;\x959R@'
p207
tp208
bag2
(g3
(I0
tp209
g5
tp210
Rp211
(I1
(I1
tp212
g12
I00
S'T\xaf\x11\x80\x88lR@'
p213
tp214
bag2
(g3
(I0
tp215
g5
tp216
Rp217
(I1
(I1
tp218
g12
I00
S'\xc9\xb8_\xa0\x7f\x9fR@'
p219
tp220
bag2
(g3
(I0
tp221
g5
tp222
Rp223
(I1
(I1
tp224
g12
I00
S'\x05&\x8f\x82w\xd2R@'
p225
tp226
bag2
(g3
(I0
tp227
g5
tp228
Rp229
(I1
(I1
tp230
g12
I00
S'D\x00\xc8\xf2l\x05S@'
p231
tp232
bag2
(g3
(I0
tp233
g5
tp234
Rp235
(I1
(I1
tp236
g12
I00
S'\xa2_\xe3\xa2\\8S@'
p237
tp238
bag2
(g3
(I0
tp239
g5
tp240
Rp241
(I1
(I1
tp242
g12
I00
S'\x88\r\xc3)CkS@'
p243
tp244
bag2
(g3
(I0
tp245
g5
tp246
Rp247
(I1
(I1
tp248
g12
I00
S'\x1fp\xa5\x02\x1d\x9eS@'
p249
tp250
bag2
(g3
(I0
tp251
g5
tp252
Rp253
(I1
(I1
tp254
g12
I00
S'w\xabu\x8c\xe6\xd0S@'
p255
tp256
bag2
(g3
(I0
tp257
g5
tp258
Rp259
(I1
(I1
tp260
g12
I00
S'\xf1\xd76\t\x9c\x03T@'
p261
tp262
bag2
(g3
(I0
tp263
g5
tp264
Rp265
(I1
(I1
tp266
g12
I00
S'\x8f\x1e\x07\x9d96T@'
p267
tp268
bag2
(g3
(I0
tp269
g5
tp270
Rp271
(I1
(I1
tp272
g12
I00
S'\xb3\xfc\x8aM\xbbhT@'
p273
tp274
bag2
(g3
(I0
tp275
g5
tp276
Rp277
(I1
(I1
tp278
g12
I00
S'\xcf\xab-\x01\x1d\x9bT@'
p279
tp280
bag2
(g3
(I0
tp281
g5
tp282
Rp283
(I1
(I1
tp284
g12
I00
S'\x93`]~Z\xcdT@'
p285
tp286
bag2
(g3
(I0
tp287
g5
tp288
Rp289
(I1
(I1
tp290
g12
I00
S'%+\x05\xdbq\xffT@'
p291
tp292
bag2
(g3
(I0
tp293
g5
tp294
Rp295
(I1
(I1
tp296
g12
I00
S'\x024\xa7\xa6i1U@'
p297
tp298
bag2
(g3
(I0
tp299
g5
tp300
Rp301
(I1
(I1
tp302
g12
I00
S'\xd8\x837\xc9=cU@'
p303
tp304
bag2
(g3
(I0
tp305
g5
tp306
Rp307
(I1
(I1
tp308
g12
I00
S"\x86'\xf4\n\xea\x94U@"
p309
tp310
bag2
(g3
(I0
tp311
g5
tp312
Rp313
(I1
(I1
tp314
g12
I00
S'\xad3\x9f\x13j\xc6U@'
p315
tp316
bag2
(g3
(I0
tp317
g5
tp318
Rp319
(I1
(I1
tp320
g12
I00
S'X8\xa7i\xb9\xf7U@'
p321
tp322
bag2
(g3
(I0
tp323
g5
tp324
Rp325
(I1
(I1
tp326
g12
I00
S'O\xd7\x7fq\xd3(V@'
p327
tp328
bag2
(g3
(I0
tp329
g5
tp330
Rp331
(I1
(I1
tp332
g12
I00
S'v\x94\xa7l\xb3YV@'
p333
tp334
bag2
(g3
(I0
tp335
g5
tp336
Rp337
(I1
(I1
tp338
g12
I00
S'?\xe4\xdcxT\x8aV@'
p339
tp340
bag2
(g3
(I0
tp341
g5
tp342
Rp343
(I1
(I1
tp344
g12
I00
S'\x9e\xa8A\x8f\xb1\xbaV@'
p345
tp346
bag2
(g3
(I0
tp347
g5
tp348
Rp349
(I1
(I1
tp350
g12
I00
S'U\xeay\x83\xc5\xeaV@'
p351
tp352
bag2
(g3
(I0
tp353
g5
tp354
Rp355
(I1
(I1
tp356
g12
I00
S'v\xb4\xc5\x02\x8b\x1aW@'
p357
tp358
bag2
(g3
(I0
tp359
g5
tp360
Rp361
(I1
(I1
tp362
g12
I00
S'\xf2\xf9\x15\x93\xfcIW@'
p363
tp364
bag2
(g3
(I0
tp365
g5
tp366
Rp367
(I1
(I1
tp368
g12
I00
S'\xa3l\x1c\x92\x14yW@'
p369
tp370
bag2
(g3
(I0
tp371
g5
tp372
Rp373
(I1
(I1
tp374
g12
I00
S'\x1e\xbb{4\xcd\xa7W@'
p375
tp376
bag2
(g3
(I0
tp377
g5
tp378
Rp379
(I1
(I1
tp380
g12
I00
S'\x90\xe4u\x84 \xd6W@'
p381
tp382
bag2
(g3
(I0
tp383
g5
tp384
Rp385
(I1
(I1
tp386
g12
I00
S'\x18; a\x08\x04X@'
p387
tp388
bag2
(g3
(I0
tp389
g5
tp390
Rp391
(I1
(I1
tp392
g12
I00
S':ik\x91~1X@'
p393
tp394
bag2
(g3
(I0
tp395
g5
tp396
Rp397
(I1
(I1
tp398
g12
I00
S'\xe8\x1a\xa2\xeb\x8d^X@'
p399
tp400
bag2
(g3
(I0
tp401
g5
tp402
Rp403
(I1
(I1
tp404
g12
I00
S'\xf7\xa2\xa2j0\x8bX@'
p405
tp406
bag2
(g3
(I0
tp407
g5
tp408
Rp409
(I1
(I1
tp410
g12
I00
S'\x0f\xc5\xe3\xdd_\xb7X@'
p411
tp412
bag2
(g3
(I0
tp413
g5
tp414
Rp415
(I1
(I1
tp416
g12
I00
S'\xbc|C\xe9\x15\xe3X@'
p417
tp418
bag2
(g3
(I0
tp419
g5
tp420
Rp421
(I1
(I1
tp422
g12
I00
S'\xd8~\xad\x02L\x0eY@'
p423
tp424
bag2
(g3
(I0
tp425
g5
tp426
Rp427
(I1
(I1
tp428
g12
I00
S':\xe6\xf5q\xfb8Y@'
p429
tp430
bag2
(g3
(I0
tp431
g5
tp432
Rp433
(I1
(I1
tp434
g12
I00
S'\x96\xc6\x85O\x1dcY@'
p435
tp436
bag2
(g3
(I0
tp437
g5
tp438
Rp439
(I1
(I1
tp440
g12
I00
S'U\xf4o\x83\xaa\x8cY@'
p441
tp442
bag2
(g3
(I0
tp443
g5
tp444
Rp445
(I1
(I1
tp446
g12
I00
S'\x98]\xe0\xc3\x9b\xb5Y@'
p447
tp448
bag2
(g3
(I0
tp449
g5
tp450
Rp451
(I1
(I1
tp452
g12
I00
S':F5\x94\xe9\xddY@'
p453
tp454
bag2
(g3
(I0
tp455
g5
tp456
Rp457
(I1
(I1
tp458
g12
I00
S'G\xe1\xd0C\x8c\x05Z@'
p459
tp460
bag2
(g3
(I0
tp461
g5
tp462
Rp463
(I1
(I1
tp464
g12
I00
S':\xa3\xe4\xec{,Z@'
p465
tp466
bag2
(g3
(I0
tp467
g5
tp468
Rp469
(I1
(I1
tp470
g12
I00
S'c16s\xb0RZ@'
p471
tp472
bag2
(g3
(I0
tp473
g5
tp474
Rp475
(I1
(I1
tp476
g12
I00
S'\xf7\x03\x90\xf32xZ@'
p477
tp478
bag2
(g3
(I0
tp479
g5
tp480
Rp481
(I1
(I1
tp482
g12
I00
S'.\x90n\xc7\xfe\x9cZ@'
p483
tp484
bag2
(g3
(I0
tp485
g5
tp486
Rp487
(I1
(I1
tp488
g12
I00
S'{lf\xe6\x0b\xc1Z@'
p489
tp490
bag2
(g3
(I0
tp491
g5
tp492
Rp493
(I1
(I1
tp494
g12
I00
S'PL\xd9\x10R\xe4Z@'
p495
tp496
bag2
(g3
(I0
tp497
g5
tp498
Rp499
(I1
(I1
tp500
g12
I00
S'K\x19\x0f\xcf\xc8\x06[@'
p501
tp502
bag2
(g3
(I0
tp503
g5
tp504
Rp505
(I1
(I1
tp506
g12
I00
S'\xdcv\xebog([@'
p507
tp508
bag2
(g3
(I0
tp509
g5
tp510
Rp511
(I1
(I1
tp512
g12
I00
S'X\x89\x9c\x07%I[@'
p513
tp514
bag2
(g3
(I0
tp515
g5
tp516
Rp517
(I1
(I1
tp518
g12
I00
S'z\xe0Bn\xf8h[@'
p519
tp520
bag2
(g3
(I0
tp521
g5
tp522
Rp523
(I1
(I1
tp524
g12
I00
S'"e\x92>\xd8\x87[@'
p525
tp526
bag2
(g3
(I0
tp527
g5
tp528
Rp529
(I1
(I1
tp530
g12
I00
S'2*l\xd4\xba\xa5[@'
p531
tp532
bag2
(g3
(I0
tp533
g5
tp534
Rp535
(I1
(I1
tp536
g12
I00
S'l\rk\x96\x9a\xc2[@'
p537
tp538
bag2
(g3
(I0
tp539
g5
tp540
Rp541
(I1
(I1
tp542
g12
I00
S'[\x82\xc1\xca\x80\xde[@'
p543
tp544
bag2
(g3
(I0
tp545
g5
tp546
Rp547
(I1
(I1
tp548
g12
I00
S'\xbd"\xec\xd4c\xf9[@'
p549
tp550
bag2
(g3
(I0
tp551
g5
tp552
Rp553
(I1
(I1
tp554
g12
I00
S'\xbc\x87\xa6\xd89\x13\\@'
p555
tp556
bag2
(g3
(I0
tp557
g5
tp558
Rp559
(I1
(I1
tp560
g12
I00
S'[7\x8c\xb8\xf8+\\@'
p561
tp562
bag2
(g3
(I0
tp563
g5
tp564
Rp565
(I1
(I1
tp566
g12
I00
S'n\x94\x9f\x14\x96C\\@'
p567
tp568
bag2
(g3
(I0
tp569
g5
tp570
Rp571
(I1
(I1
tp572
g12
I00
S'\x16E\xc9H\x07Z\\@'
p573
tp574
bag2
(g3
(I0
tp575
g5
tp576
Rp577
(I1
(I1
tp578
g12
I00
S'\xa5\xebOkAo\\@'
p579
tp580
bag2
(g3
(I0
tp581
g5
tp582
Rp583
(I1
(I1
tp584
g12
I00
S':\xca\x98K9\x83\\@'
p585
tp586
bag2
(g3
(I0
tp587
g5
tp588
Rp589
(I1
(I1
tp590
g12
I00
S'Q\xff\xb3\x82\xea\x95\\@'
p591
tp592
bag2
(g3
(I0
tp593
g5
tp594
Rp595
(I1
(I1
tp596
g12
I00
S'o\xb1\x04k\\\xa7\\@'
p597
tp598
bag2
(g3
(I0
tp599
g5
tp600
Rp601
(I1
(I1
tp602
g12
I00
S'\x90\xe3\xa5\xcd\x83\xb7\\@'
p603
tp604
bag2
(g3
(I0
tp605
g5
tp606
Rp607
(I1
(I1
tp608
g12
I00
S'\xf4\xa2)+U\xc6\\@'
p609
tp610
bag2
(g3
(I0
tp611
g5
tp612
Rp613
(I1
(I1
tp614
g12
I00
S'\xd9\xa6\xfa\xb9\xc4\xd3\\@'
p615
tp616
bag2
(g3
(I0
tp617
g5
tp618
Rp619
(I1
(I1
tp620
g12
I00
S'us5d\xc6\xdf\\@'
p621
tp622
bag2
(g3
(I0
tp623
g5
tp624
Rp625
(I1
(I1
tp626
g12
I00
S'b\xbe\xbb\xc7M\xea\\@'
p627
tp628
bag2
(g3
(I0
tp629
g5
tp630
Rp631
(I1
(I1
tp632
g12
I00
S'@\x8862N\xf3\\@'
p633
tp634
bag2
(g3
(I0
tp635
g5
tp636
Rp637
(I1
(I1
tp638
g12
I00
S'\x85\x11.y\xcd\xfa\\@'
p639
tp640
bag2
(g3
(I0
tp641
g5
tp642
Rp643
(I1
(I1
tp644
g12
I00
S'\xc6\xb80*\xc8\x00]@'
p645
tp646
bag2
(g3
(I0
tp647
g5
tp648
Rp649
(I1
(I1
tp650
g12
I00
S't\x89b\x7f1\x05]@'
p651
tp652
bag2
(g3
(I0
tp653
g5
tp654
Rp655
(I1
(I1
tp656
g12
I00
S'\xaa\xad\xfda\xfc\x07]@'
p657
tp658
bag2
(g3
(I0
tp659
g5
tp660
Rp661
(I1
(I1
tp662
g12
I00
S'\xb1\xa6eh\x1b\t]@'
p663
tp664
bag2
(g3
(I0
tp665
g5
tp666
Rp667
(I1
(I1
tp668
g12
I00
S'\xa7\xbd\xad\xd4\x80\x08]@'
p669
tp670
bag2
(g3
(I0
tp671
g5
tp672
Rp673
(I1
(I1
tp674
g12
I00
S'\xc5\x92\xe4\r!\x06]@'
p675
tp676
bag2
(g3
(I0
tp677
g5
tp678
Rp679
(I1
(I1
tp680
g12
I00
S'U\x10\x05F\t\x02]@'
p681
tp682
bag2
(g3
(I0
tp683
g5
tp684
Rp685
(I1
(I1
tp686
g12
I00
S'\xcf\xd4\xa8\x9c+\xfc\\@'
p687
tp688
bag2
(g3
(I0
tp689
g5
tp690
Rp691
(I1
(I1
tp692
g12
I00
S'u;\x92\xday\xf4\\@'
p693
tp694
bag2
(g3
(I0
tp695
g5
tp696
Rp697
(I1
(I1
tp698
g12
I00
S'\xc5\x08\xbbo\xe5\xea\\@'
p699
tp700
bag2
(g3
(I0
tp701
g5
tp702
Rp703
(I1
(I1
tp704
g12
I00
S'\xa0\xd3mq_\xdf\\@'
p705
tp706
bag2
(g3
(I0
tp707
g5
tp708
Rp709
(I1
(I1
tp710
g12
I00
S'z\xa79&\xe2\xd1\\@'
p711
tp712
bag2
(g3
(I0
tp713
g5
tp714
Rp715
(I1
(I1
tp716
g12
I00
S'\xe6U\nTt\xc2\\@'
p717
tp718
bag2
(g3
(I0
tp719
g5
tp720
Rp721
(I1
(I1
tp722
g12
I00
S'-\x15=\xdf\x06\xb1\\@'
p723
tp724
bag2
(g3
(I0
tp725
g5
tp726
Rp727
(I1
(I1
tp728
g12
I00
S'";\x8cN\x8a\x9d\\@'
p729
tp730
bag2
(g3
(I0
tp731
g5
tp732
Rp733
(I1
(I1
tp734
g12
I00
S'<\t~\xc9\xee\x87\\@'
p735
tp736
bag2
(g3
(I0
tp737
g5
tp738
Rp739
(I1
(I1
tp740
g12
I00
S'$\x18@+*p\\@'
p741
tp742
bag2
(g3
(I0
tp743
g5
tp744
Rp745
(I1
(I1
tp746
g12
I00
S'\x13\xb5?\x0bGV\\@'
p747
tp748
bag2
(g3
(I0
tp749
g5
tp750
Rp751
(I1
(I1
tp752
g12
I00
S'\x1c\xa9\xbbP5:\\@'
p753
tp754
bag2
(g3
(I0
tp755
g5
tp756
Rp757
(I1
(I1
tp758
g12
I00
S'\x00S\x85\x80\xe4\x1b\\@'
p759
tp760
bag2
(g3
(I0
tp761
g5
tp762
Rp763
(I1
(I1
tp764
g12
I00
S'\xe9\x90\xe9\xbaC\xfb[@'
p765
tp766
bag2
(g3
(I0
tp767
g5
tp768
Rp769
(I1
(I1
tp770
g12
I00
S'\xe8m-\xc5V\xd8[@'
p771
tp772
bag2
(g3
(I0
tp773
g5
tp774
Rp775
(I1
(I1
tp776
g12
I00
S'(3\x1a\xd1\x19\xb3[@'
p777
tp778
bag2
(g3
(I0
tp779
g5
tp780
Rp781
(I1
(I1
tp782
g12
I00
S'j\x7f\xe4\xae{\x8b[@'
p783
tp784
bag2
(g3
(I0
tp785
g5
tp786
Rp787
(I1
(I1
tp788
g12
I00
S"'\x9f\xcd\xc6ja[@"
p789
tp790
bag2
(g3
(I0
tp791
g5
tp792
Rp793
(I1
(I1
tp794
g12
I00
S',]\xf3\xf0\xe64[@'
p795
tp796
bag2
(g3
(I0
tp797
g5
tp798
Rp799
(I1
(I1
tp800
g12
I00
S'\x897\xe8\xc8\xef\x05[@'
p801
tp802
bag2
(g3
(I0
tp803
g5
tp804
Rp805
(I1
(I1
tp806
g12
I00
S'\xb4\x84WWs\xd4Z@'
p807
tp808
bag2
(g3
(I0
tp809
g5
tp810
Rp811
(I1
(I1
tp812
g12
I00
S'n\x9dH9_\xa0Z@'
p813
tp814
bag2
(g3
(I0
tp815
g5
tp816
Rp817
(I1
(I1
tp818
g12
I00
S'\xbfSyY\xbdiZ@'
p819
tp820
bag2
(g3
(I0
tp821
g5
tp822
Rp823
(I1
(I1
tp824
g12
I00
S'\x16\xcbd\xcf\x820Z@'
p825
tp826
bag2
(g3
(I0
tp827
g5
tp828
Rp829
(I1
(I1
tp830
g12
I00
S'\xcdg\x02\xc9\x9c\xf4Y@'
p831
tp832
bag2
(g3
(I0
tp833
g5
tp834
Rp835
(I1
(I1
tp836
g12
I00
S'\x8fb\x02R\x07\xb6Y@'
p837
tp838
bag2
(g3
(I0
tp839
g5
tp840
Rp841
(I1
(I1
tp842
g12
I00
S'\xbf\xed~\x06\xc5tY@'
p843
tp844
bag2
(g3
(I0
tp845
g5
tp846
Rp847
(I1
(I1
tp848
g12
I00
S'\xbd\xf0l\x97\xc20Y@'
p849
tp850
bag2
(g3
(I0
tp851
g5
tp852
Rp853
(I1
(I1
tp854
g12
I00
S'\xefu)\xa5\xf8\xe9X@'
p855
tp856
bag2
(g3
(I0
tp857
g5
tp858
Rp859
(I1
(I1
tp860
g12
I00
S'\x92.\xb6\xe3l\xa0X@'
p861
tp862
bag2
(g3
(I0
tp863
g5
tp864
Rp865
(I1
(I1
tp866
g12
I00
S'\x96\x8b\xc8x\x0bTX@'
p867
tp868
bag2
(g3
(I0
tp869
g5
tp870
Rp871
(I1
(I1
tp872
g12
I00
S'\xcaQ\x11-\xd3\x04X@'
p873
tp874
bag2
(g3
(I0
tp875
g5
tp876
Rp877
(I1
(I1
tp878
g12
I00
S'\xc9\xbaN\x19\xc3\xb2W@'
p879
tp880
bag2
(g3
(I0
tp881
g5
tp882
Rp883
(I1
(I1
tp884
g12
I00
S'\xcaW\xe0\xc8\xc6]W@'
p885
tp886
bag2
(g3
(I0
tp887
g5
tp888
Rp889
(I1
(I1
tp890
g12
I00
S'\xd1\x87\xf4>\xec\x05W@'
p891
tp892
bag2
(g3
(I0
tp893
g5
tp894
Rp895
(I1
(I1
tp896
g12
I00
S'`\xf2\xbf\x02#\xabV@'
p897
tp898
bag2
(g3
(I0
tp899
g5
tp900
Rp901
(I1
(I1
tp902
g12
I00
S'A\x0c\xca\x0ciMV@'
p903
tp904
bag2
(g3
(I0
tp905
g5
tp906
Rp907
(I1
(I1
tp908
g12
I00
S'\xde\x9b\xbf\xa9\xbd\xecU@'
p909
tp910
bag2
(g3
(I0
tp911
g5
tp912
Rp913
(I1
(I1
tp914
g12
I00
S'\xaf}\x8c\x81\x15\x89U@'
p915
tp916
bag2
(g3
(I0
tp917
g5
tp918
Rp919
(I1
(I1
tp920
g12
I00
S'(\xe0f\xd4x"U@'
p921
tp922
bag2
(g3
(I0
tp923
g5
tp924
Rp925
(I1
(I1
tp926
g12
I00
S"'j\xcb\x1e\xd9\xb8T@"
p927
tp928
bag2
(g3
(I0
tp929
g5
tp930
Rp931
(I1
(I1
tp932
g12
I00
S's\xf2\xbd\x84ALT@'
p933
tp934
bag2
(g3
(I0
tp935
g5
tp936
Rp937
(I1
(I1
tp938
g12
I00
S'\xfdd\xd0\xec\xa5\xdcS@'
p939
tp940
bag2
(g3
(I0
tp941
g5
tp942
Rp943
(I1
(I1
tp944
g12
I00
S'AX\xe4\xc1\x0ejS@'
p945
tp946
bag2
(g3
(I0
tp947
g5
tp948
Rp949
(I1
(I1
tp950
g12
I00
S'\x9eq\x01~w\xf4R@'
p951
tp952
bag2
(g3
(I0
tp953
g5
tp954
Rp955
(I1
(I1
tp956
g12
I00
S'\x9e>V\x91\xe0{R@'
p957
tp958
bag2
(g3
(I0
tp959
g5
tp960
Rp961
(I1
(I1
tp962
g12
I00
S'r3>\xd3Q\x00R@'
p963
tp964
bag2
(g3
(I0
tp965
g5
tp966
Rp967
(I1
(I1
tp968
g12
I00
S'\xf9\x08\x8cS\xc5\x81Q@'
p969
tp970
bag2
(g3
(I0
tp971
g5
tp972
Rp973
(I1
(I1
tp974
g12
I00
S'o\xc0\xf9\x8eF\x00Q@'
p975
tp976
bag2
(g3
(I0
tp977
g5
tp978
Rp979
(I1
(I1
tp980
g12
I00
S'\xac\x91,\xa9\xd9{P@'
p981
tp982
bag2
(g3
(I0
tp983
g5
tp984
Rp985
(I1
(I1
tp986
g12
I00
S"\x9a\xc8'O\xff\xe8O@"
p987
tp988
bag2
(g3
(I0
tp989
g5
tp990
Rp991
(I1
(I1
tp992
g12
I00
S'\xb7\x92\x8e\t\x7f\xd4N@'
p993
tp994
bag2
(g3
(I0
tp995
g5
tp996
Rp997
(I1
(I1
tp998
g12
I00
S'di\xf0\xc5O\xbaM@'
p999
tp1000
bag2
(g3
(I0
tp1001
g5
tp1002
Rp1003
(I1
(I1
tp1004
g12
I00
S'\xf7\xc6w\xac~\x9aL@'
p1005
tp1006
bag2
(g3
(I0
tp1007
g5
tp1008
Rp1009
(I1
(I1
tp1010
g12
I00
S'\xb5\xd0\x9a\xf9\x1duK@'
p1011
tp1012
bag2
(g3
(I0
tp1013
g5
tp1014
Rp1015
(I1
(I1
tp1016
g12
I00
S'\x85>\xb4\x7fDJJ@'
p1017
tp1018
bag2
(g3
(I0
tp1019
g5
tp1020
Rp1021
(I1
(I1
tp1022
g12
I00
S'I9\x9b2\r\x1aI@'
p1023
tp1024
bag2
(g3
(I0
tp1025
g5
tp1026
Rp1027
(I1
(I1
tp1028
g12
I00
S'r\x8ba\xa9\x96\xe4G@'
p1029
tp1030
bag2
(g3
(I0
tp1031
g5
tp1032
Rp1033
(I1
(I1
tp1034
g12
I00
S'0\xack\xb3\x02\xaaF@'
p1035
tp1036
bag2
(g3
(I0
tp1037
g5
tp1038
Rp1039
(I1
(I1
tp1040
g12
I00
S'\xa9\x9d\xf3\xe3ujE@'
p1041
tp1042
bag2
(g3
(I0
tp1043
g5
tp1044
Rp1045
(I1
(I1
tp1046
g12
I00
S'\xcd~\x1e\x1c\x17&D@'
p1047
tp1048
bag2
(g3
(I0
tp1049
g5
tp1050
Rp1051
(I1
(I1
tp1052
g12
I00
S'\x93l\x84T\x0f\xddB@'
p1053
tp1054
bag2
(g3
(I0
tp1055
g5
tp1056
Rp1057
(I1
(I1
tp1058
g12
I00
S'E\xca\xa1N\x8f\x8fA@'
p1059
tp1060
bag2
(g3
(I0
tp1061
g5
tp1062
Rp1063
(I1
(I1
tp1064
g12
I00
S'\xab\x1f\xc11\xd2=@@'
p1065
tp1066
bag2
(g3
(I0
tp1067
g5
tp1068
Rp1069
(I1
(I1
tp1070
g12
I00
S'\xcd\xb3\xb2\x9a\x0e\xd0=@'
p1071
tp1072
bag2
(g3
(I0
tp1073
g5
tp1074
Rp1075
(I1
(I1
tp1076
g12
I00
S'\xc9\xb8\x1e4\xeb\x1c;@'
p1077
tp1078
bag2
(g3
(I0
tp1079
g5
tp1080
Rp1081
(I1
(I1
tp1082
g12
I00
S'2\xfbN\xe9\xaeb8@'
p1083
tp1084
bag2
(g3
(I0
tp1085
g5
tp1086
Rp1087
(I1
(I1
tp1088
g12
I00
S'f\xc7-\xa2\xf4\xa15@'
p1089
tp1090
bag2
(g3
(I0
tp1091
g5
tp1092
Rp1093
(I1
(I1
tp1094
g12
I00
S'\xa0\xa4(=Y\xdb2@'
p1095
tp1096
bag2
(g3
(I0
tp1097
g5
tp1098
Rp1099
(I1
(I1
tp1100
g12
I00
S'.fk\xed\x81\x0f0@'
p1101
tp1102
bag2
(g3
(I0
tp1103
g5
tp1104
Rp1105
(I1
(I1
tp1106
g12
I00
S'0>isC~*@'
p1107
tp1108
bag2
(g3
(I0
tp1109
g5
tp1110
Rp1111
(I1
(I1
tp1112
g12
I00
S'\xb5%ra\xfe\xd5$@'
p1113
tp1114
bag2
(g3
(I0
tp1115
g5
tp1116
Rp1117
(I1
(I1
tp1118
g12
I00
S'^&\xc6I\xc2O\x1e@'
p1119
tp1120
bag2
(g3
(I0
tp1121
g5
tp1122
Rp1123
(I1
(I1
tp1124
g12
I00
S'U8\xa5\xb4T\xeb\x12@'
p1125
tp1126
bag2
(g3
(I0
tp1127
g5
tp1128
Rp1129
(I1
(I1
tp1130
g12
I00
S'\x19\xb7\xd0\x06\x0f\n\xfe?'
p1131
tp1132
bag2
(g3
(I0
tp1133
g5
tp1134
Rp1135
(I1
(I1
tp1136
g12
I00
S'\xc2\xe97\xf5Q4\xef\xbf'
p1137
tp1138
bag2
(g3
(I0
tp1139
g5
tp1140
Rp1141
(I1
(I1
tp1142
g12
I00
S'\xfa\xb1\x10I\xf2\x96\x0e\xc0'
p1143
tp1144
bag2
(g3
(I0
tp1145
g5
tp1146
Rp1147
(I1
(I1
tp1148
g12
I00
S'LS\xcc|s\xa7\x1a\xc0'
p1149
tp1150
bag2
(g3
(I0
tp1151
g5
tp1152
Rp1153
(I1
(I1
tp1154
g12
I00
S'\x87;\x992\xb4\xfa"\xc0'
p1155
tp1156
bag2
(g3
(I0
tp1157
g5
tp1158
Rp1159
(I1
(I1
tp1160
g12
I00
S'\x1e\xa9\x87%\xe2\x97(\xc0'
p1161
tp1162
bag2
(g3
(I0
tp1163
g5
tp1164
Rp1165
(I1
(I1
tp1166
g12
I00
S'K\x97\x86\xb5N(.\xc0'
p1167
tp1168
bag2
(g3
(I0
tp1169
g5
tp1170
Rp1171
(I1
(I1
tp1172
g12
I00
S'\x9b\xfe\\\x90j\xd51\xc0'
p1173
tp1174
bag2
(g3
(I0
tp1175
g5
tp1176
Rp1177
(I1
(I1
tp1178
g12
I00
S'\xf18N=\xee\x904\xc0'
p1179
tp1180
bag2
(g3
(I0
tp1181
g5
tp1182
Rp1183
(I1
(I1
tp1184
g12
I00
S'\xa5\xfdv\xd1\xe0G7\xc0'
p1185
tp1186
bag2
(g3
(I0
tp1187
g5
tp1188
Rp1189
(I1
(I1
tp1190
g12
I00
S'\x05<\xc6;d\xfb9\xc0'
p1191
tp1192
bag2
(g3
(I0
tp1193
g5
tp1194
Rp1195
(I1
(I1
tp1196
g12
I00
S'\x93\xb7\x86\xd1\x8e\xac<\xc0'
p1197
tp1198
bag2
(g3
(I0
tp1199
g5
tp1200
Rp1201
(I1
(I1
tp1202
g12
I00
S"Ew\x82'l\\?\xc0"
p1203
tp1204
bag2
(g3
(I0
tp1205
g5
tp1206
Rp1207
(I1
(I1
tp1208
g12
I00
S']\xac\x02\xef\xfe\x05A\xc0'
p1209
tp1210
bag2
(g3
(I0
tp1211
g5
tp1212
Rp1213
(I1
(I1
tp1214
g12
I00
S'\x12\xdc@0\x1e^B\xc0'
p1215
tp1216
bag2
(g3
(I0
tp1217
g5
tp1218
Rp1219
(I1
(I1
tp1220
g12
I00
S'\xb6\xcf\xe3\xcc\x0b\xb7C\xc0'
p1221
tp1222
bag2
(g3
(I0
tp1223
g5
tp1224
Rp1225
(I1
(I1
tp1226
g12
I00
S'\x92\xb4\xd5\xce;\x11E\xc0'
p1227
tp1228
bag2
(g3
(I0
tp1229
g5
tp1230
Rp1231
(I1
(I1
tp1232
g12
I00
S'\x1f\x054\xa4\x1emF\xc0'
p1233
tp1234
bag2
(g3
(I0
tp1235
g5
tp1236
Rp1237
(I1
(I1
tp1238
g12
I00
S'\x87\xaa\xa9j!\xcbG\xc0'
p1239
tp1240
baa.