(lp0
(lp1
cnumpy.core.multiarray
_reconstruct
p2
(cnumpy
ndarray
p3
(I0
tp4
S'b'
p5
tp6
Rp7
(I1
(I1
tp8
cnumpy
dtype
p9
(S'f8'
p10
I0
I1
tp11
Rp12
(I3
S'<'
p13
NNNI-1
I-1
I0
tp14
bI00
S'I\xfa\xfb\xe7\x9d\xb2H@'
p15
tp16
bag2
(g3
(I0
tp17
g5
tp18
Rp19
(I1
(I1
tp20
g12
I00
S'@@\xb0_v\xbeH@'
p21
tp22
bag2
(g3
(I0
tp23
g5
tp24
Rp25
(I1
(I1
tp26
g12
I00
S'|S\x0e\xe8\x8b\xcaH@'
p27
tp28
bag2
(g3
(I0
tp29
g5
tp30
Rp31
(I1
(I1
tp32
g12
I00
S'\xc4\xcb\xed\xde\xde\xd6H@'
p33
tp34
bag2
(g3
(I0
tp35
g5
tp36
Rp37
(I1
(I1
tp38
g12
I00
S'\x14\xd7\xc4\xa2o\xe3H@'
p39
tp40
bag2
(g3
(I0
tp41
g5
tp42
Rp43
(I1
(I1
tp44
g12
I00
S'G\xe9\xe6\x92>\xf0H@'
p45
tp46
bag2
(g3
(I0
tp47
g5
tp48
Rp49
(I1
(I1
tp50
g12
I00
S'\xa84\xb5\x0fL\xfdH@'
p51
tp52
bag2
(g3
(I0
tp53
g5
tp54
Rp55
(I1
(I1
tp56
g12
I00
S'\xb2\xe8\x87z\x98\nI@'
p57
tp58
bag2
(g3
(I0
tp59
g5
tp60
Rp61
(I1
(I1
tp62
g12
I00
S"'\xc9+5$\x18I@"
p63
tp64
bag2
(g3
(I0
tp65
g5
tp66
Rp67
(I1
(I1
tp68
g12
I00
S'\x9b(\x80\xa2\xef%I@'
p69
tp70
bag2
(g3
(I0
tp71
g5
tp72
Rp73
(I1
(I1
tp74
g12
I00
S'"\x170&\xfb3I@'
p75
tp76
bag2
(g3
(I0
tp77
g5
tp78
Rp79
(I1
(I1
tp80
g12
I00
S'\x9a\x89\xa9$GBI@'
p81
tp82
bag2
(g3
(I0
tp83
g5
tp84
Rp85
(I1
(I1
tp86
g12
I00
S'\xb6\xe3\x80\x03\xd4PI@'
p87
tp88
bag2
(g3
(I0
tp89
g5
tp90
Rp91
(I1
(I1
tp92
g12
I00
S'\x89x\xfa(\xa2_I@'
p93
tp94
bag2
(g3
(I0
tp95
g5
tp96
Rp97
(I1
(I1
tp98
g12
I00
S'6\x84\x82\xfc\xb1nI@'
p99
tp100
bag2
(g3
(I0
tp101
g5
tp102
Rp103
(I1
(I1
tp104
g12
I00
S'6F\xb7\xe6\x03~I@'
p105
tp106
bag2
(g3
(I0
tp107
g5
tp108
Rp109
(I1
(I1
tp110
g12
I00
S'\x93QUQ\x98\x8dI@'
p111
tp112
bag2
(g3
(I0
tp113
g5
tp114
Rp115
(I1
(I1
tp116
g12
I00
S'n\xeb~\xa6o\x9dI@'
p117
tp118
bag2
(g3
(I0
tp119
g5
tp120
Rp121
(I1
(I1
tp122
g12
I00
S'\xc0R\x08Q\x8a\xadI@'
p123
tp124
bag2
(g3
(I0
tp125
g5
tp126
Rp127
(I1
(I1
tp128
g12
I00
S'\x86\x9e\xde\xbc\xe8\xbdI@'
p129
tp130
bag2
(g3
(I0
tp131
g5
tp132
Rp133
(I1
(I1
tp134
g12
I00
S'2\xe7\x06W\x8b\xceI@'
p135
tp136
bag2
(g3
(I0
tp137
g5
tp138
Rp139
(I1
(I1
tp140
g12
I00
S'\xd6\xd2\x80\x8dr\xdfI@'
p141
tp142
bag2
(g3
(I0
tp143
g5
tp144
Rp145
(I1
(I1
tp146
g12
I00
S'\xf3h]\xcf\x9e\xf0I@'
p147
tp148
bag2
(g3
(I0
tp149
g5
tp150
Rp151
(I1
(I1
tp152
g12
I00
S'\x1b^\xcd\x8c\x10\x02J@'
p153
tp154
bag2
(g3
(I0
tp155
g5
tp156
Rp157
(I1
(I1
tp158
g12
I00
S'\xab\x0b$7\xc8\x13J@'
p159
tp160
bag2
(g3
(I0
tp161
g5
tp162
Rp163
(I1
(I1
tp164
g12
I00
S'i\\\xaf@\xc6%J@'
p165
tp166
bag2
(g3
(I0
tp167
g5
tp168
Rp169
(I1
(I1
tp170
g12
I00
S'\xa1f\xb0\x1d\x0b8J@'
p171
tp172
bag2
(g3
(I0
tp173
g5
tp174
Rp175
(I1
(I1
tp176
g12
I00
S'\x9b\xefLB\x97JJ@'
p177
tp178
bag2
(g3
(I0
tp179
g5
tp180
Rp181
(I1
(I1
tp182
g12
I00
S'\x1f=B#k]J@'
p183
tp184
bag2
(g3
(I0
tp185
g5
tp186
Rp187
(I1
(I1
tp188
g12
I00
S'7\xacE6\x87pJ@'
p189
tp190
bag2
(g3
(I0
tp191
g5
tp192
Rp193
(I1
(I1
tp194
g12
I00
S'y\x0c\x06\xf2\xeb\x83J@'
p195
tp196
bag2
(g3
(I0
tp197
g5
tp198
Rp199
(I1
(I1
tp200
g12
I00
S'\x13\xb2%\xce\x99\x97J@'
p201
tp202
bag2
(g3
(I0
tp203
g5
tp204
Rp205
(I1
(I1
tp206
g12
I00
S'\xa1m\xeeD\x91\xabJ@'
p207
tp208
bag2
(g3
(I0
tp209
g5
tp210
Rp211
(I1
(I1
tp212
g12
I00
S'\x93\xf3{\xcf\xd2\xbfJ@'
p213
tp214
bag2
(g3
(I0
tp215
g5
tp216
Rp217
(I1
(I1
tp218
g12
I00
S'$\xd0\x10\xe8^\xd4J@'
p219
tp220
bag2
(g3
(I0
tp221
g5
tp222
Rp223
(I1
(I1
tp224
g12
I00
S'\xae`\xcf\t6\xe9J@'
p225
tp226
bag2
(g3
(I0
tp227
g5
tp228
Rp229
(I1
(I1
tp230
g12
I00
S'\x875m\xb2X\xfeJ@'
p231
tp232
bag2
(g3
(I0
tp233
g5
tp234
Rp235
(I1
(I1
tp236
g12
I00
S'\x13\xa4\x03a\xc7\x13K@'
p237
tp238
bag2
(g3
(I0
tp239
g5
tp240
Rp241
(I1
(I1
tp242
g12
I00
S'K\xab \x94\x82)K@'
p243
tp244
bag2
(g3
(I0
tp245
g5
tp246
Rp247
(I1
(I1
tp248
g12
I00
S't\xf1y\xcb\x8a?K@'
p249
tp250
bag2
(g3
(I0
tp251
g5
tp252
Rp253
(I1
(I1
tp254
g12
I00
S'\x1f\x88\x1f\x88\xe0UK@'
p255
tp256
bag2
(g3
(I0
tp257
g5
tp258
Rp259
(I1
(I1
tp260
g12
I00
S'J|\xb9M\x84lK@'
p261
tp262
bag2
(g3
(I0
tp263
g5
tp264
Rp265
(I1
(I1
tp266
g12
I00
S'}:\xf2\x9ev\x83K@'
p267
tp268
bag2
(g3
(I0
tp269
g5
tp270
Rp271
(I1
(I1
tp272
g12
I00
S'FN\x99\xff\xb7\x9aK@'
p273
tp274
bag2
(g3
(I0
tp275
g5
tp276
Rp277
(I1
(I1
tp278
g12
I00
S'\x906p\xf5H\xb2K@'
p279
tp280
bag2
(g3
(I0
tp281
g5
tp282
Rp283
(I1
(I1
tp284
g12
I00
S'\xc4\x9e\xac\x07*\xcaK@'
p285
tp286
bag2
(g3
(I0
tp287
g5
tp288
Rp289
(I1
(I1
tp290
g12
I00
S'\x9cR\xfe\xbc[\xe2K@'
p291
tp292
bag2
(g3
(I0
tp293
g5
tp294
Rp295
(I1
(I1
tp296
g12
I00
S'\xe2ad\x9d\xde\xfaK@'
p297
tp298
bag2
(g3
(I0
tp299
g5
tp300
Rp301
(I1
(I1
tp302
g12
I00
S'\xee\xae(4\xb3\x13L@'
p303
tp304
bag2
(g3
(I0
tp305
g5
tp306
Rp307
(I1
(I1
tp308
g12
I00
S'X\xaa\xb8\n\xda,L@'
p309
tp310
bag2
(g3
(I0
tp311
g5
tp312
Rp313
(I1
(I1
tp314
g12
I00
S'|\xfc\xf2\xabSFL@'
p315
tp316
bag2
(g3
(I0
tp317
g5
tp318
Rp319
(I1
(I1
tp320
g12
I00
S'\xe6.\xbc\xa6 `L@'
p321
tp322
bag2
(g3
(I0
tp323
g5
tp324
Rp325
(I1
(I1
tp326
g12
I00
S"\x91'\xf6\x87AzL@"
p327
tp328
bag2
(g3
(I0
tp329
g5
tp330
Rp331
(I1
(I1
tp332
g12
I00
S'v\xb6\x8b\xdd\xb6\x94L@'
p333
tp334
bag2
(g3
(I0
tp335
g5
tp336
Rp337
(I1
(I1
tp338
g12
I00
S'?\xe9\xc49\x81\xafL@'
p339
tp340
bag2
(g3
(I0
tp341
g5
tp342
Rp343
(I1
(I1
tp344
g12
I00
S'\xf4\x9dJ,\xa1\xcaL@'
p345
tp346
bag2
(g3
(I0
tp347
g5
tp348
Rp349
(I1
(I1
tp350
g12
I00
S'\x92\xdc\xefE\x17\xe6L@'
p351
tp352
bag2
(g3
(I0
tp353
g5
tp354
Rp355
(I1
(I1
tp356
g12
I00
S'\r\x8a\xce\x1b\xe4\x01M@'
p357
tp358
bag2
(g3
(I0
tp359
g5
tp360
Rp361
(I1
(I1
tp362
g12
I00
S'\xd9^\xad@\x08\x1eM@'
p363
tp364
bag2
(g3
(I0
tp365
g5
tp366
Rp367
(I1
(I1
tp368
g12
I00
S'6\xb7\xb8I\x84:M@'
p369
tp370
bag2
(g3
(I0
tp371
g5
tp372
Rp373
(I1
(I1
tp374
g12
I00
S'?4\xc9\xcdXWM@'
p375
tp376
bag2
(g3
(I0
tp377
g5
tp378
Rp379
(I1
(I1
tp380
g12
I00
S'\x90\x88gb\x86tM@'
p381
tp382
bag2
(g3
(I0
tp383
g5
tp384
Rp385
(I1
(I1
tp386
g12
I00
S'\xb2\x06$\xa1\r\x92M@'
p387
tp388
bag2
(g3
(I0
tp389
g5
tp390
Rp391
(I1
(I1
tp392
g12
I00
S'C\xe8<#\xef\xafM@'
p393
tp394
bag2
(g3
(I0
tp395
g5
tp396
Rp397
(I1
(I1
tp398
g12
I00
S'\xe2\x0c$\x82+\xceM@'
p399
tp400
bag2
(g3
(I0
tp401
g5
tp402
Rp403
(I1
(I1
tp404
g12
I00
S'\x06@\x93[\xc3\xecM@'
p405
tp406
bag2
(g3
(I0
tp407
g5
tp408
Rp409
(I1
(I1
tp410
g12
I00
S'\xeb\xee\x8dJ\xb7\x0bN@'
p411
tp412
bag2
(g3
(I0
tp413
g5
tp414
Rp415
(I1
(I1
tp416
g12
I00
S'\x16\xfd-\xed\x07+N@'
p417
tp418
bag2
(g3
(I0
tp419
g5
tp420
Rp421
(I1
(I1
tp422
g12
I00
S'?"v\xe1\xb5JN@'
p423
tp424
bag2
(g3
(I0
tp425
g5
tp426
Rp427
(I1
(I1
tp428
g12
I00
S'X\x839\xc6\xc1jN@'
p429
tp430
bag2
(g3
(I0
tp431
g5
tp432
Rp433
(I1
(I1
tp434
g12
I00
S'9+\xcb=,\x8bN@'
p435
tp436
bag2
(g3
(I0
tp437
g5
tp438
Rp439
(I1
(I1
tp440
g12
I00
S'\xb4u\xdd\xe7\xf5\xabN@'
p441
tp442
bag2
(g3
(I0
tp443
g5
tp444
Rp445
(I1
(I1
tp446
g12
I00
S'\x18\xf1[h\x1f\xcdN@'
p447
tp448
bag2
(g3
(I0
tp449
g5
tp450
Rp451
(I1
(I1
tp452
g12
I00
S'\x1e!\xf8a\xa9\xeeN@'
p453
tp454
bag2
(g3
(I0
tp455
g5
tp456
Rp457
(I1
(I1
tp458
g12
I00
S')$8y\x94\x10O@'
p459
tp460
bag2
(g3
(I0
tp461
g5
tp462
Rp463
(I1
(I1
tp464
g12
I00
S'\xaa\x0e\xdeT\xe12O@'
p465
tp466
bag2
(g3
(I0
tp467
g5
tp468
Rp469
(I1
(I1
tp470
g12
I00
S'\xec\xb0H\x9a\x90UO@'
p471
tp472
bag2
(g3
(I0
tp473
g5
tp474
Rp475
(I1
(I1
tp476
g12
I00
S'\xeb\xd7\x89\xf3\xa2xO@'
p477
tp478
bag2
(g3
(I0
tp479
g5
tp480
Rp481
(I1
(I1
tp482
g12
I00
S't\x9c&\x07\x19\x9cO@'
p483
tp484
bag2
(g3
(I0
tp485
g5
tp486
Rp487
(I1
(I1
tp488
g12
I00
S'\x9c\xf1g\x80\xf3\xbfO@'
p489
tp490
bag2
(g3
(I0
tp491
g5
tp492
Rp493
(I1
(I1
tp494
g12
I00
S'a\xed~\t3\xe4O@'
p495
tp496
bag2
(g3
(I0
tp497
g5
tp498
Rp499
(I1
(I1
tp500
g12
I00
S"j\xde,'l\x04P@"
p501
tp502
bag2
(g3
(I0
tp503
g5
tp504
Rp505
(I1
(I1
tp506
g12
I00
S'\x84\xb1\xf1\xfd\xf1\x16P@'
p507
tp508
bag2
(g3
(I0
tp509
g5
tp510
Rp511
(I1
(I1
tp512
g12
I00
S'\x1aDi_\xab)P@'
p513
tp514
bag2
(g3
(I0
tp515
g5
tp516
Rp517
(I1
(I1
tp518
g12
I00
S'\xd8\xa1\xfe\xa3\x98<P@'
p519
tp520
bag2
(g3
(I0
tp521
g5
tp522
Rp523
(I1
(I1
tp524
g12
I00
S'v\xc1O"\xbaOP@'
p525
tp526
bag2
(g3
(I0
tp527
g5
tp528
Rp529
(I1
(I1
tp530
g12
I00
S'\xd1#\xe83\x10cP@'
p531
tp532
bag2
(g3
(I0
tp533
g5
tp534
Rp535
(I1
(I1
tp536
g12
I00
S'\xe7S\\0\x9bvP@'
p537
tp538
bag2
(g3
(I0
tp539
g5
tp540
Rp541
(I1
(I1
tp542
g12
I00
S'\xa7\xb0oq[\x8aP@'
p543
tp544
bag2
(g3
(I0
tp545
g5
tp546
Rp547
(I1
(I1
tp548
g12
I00
S'\rn?PQ\x9eP@'
p549
tp550
bag2
(g3
(I0
tp551
g5
tp552
Rp553
(I1
(I1
tp554
g12
I00
S'\xc0\x17\xb4&}\xb2P@'
p555
tp556
bag2
(g3
(I0
tp557
g5
tp558
Rp559
(I1
(I1
tp560
g12
I00
S'b\xb0\xccO\xdf\xc6P@'
p561
tp562
bag2
(g3
(I0
tp563
g5
tp564
Rp565
(I1
(I1
tp566
g12
I00
S'\xd2\xce\x9a%x\xdbP@'
p567
tp568
bag2
(g3
(I0
tp569
g5
tp570
Rp571
(I1
(I1
tp572
g12
I00
S'w\xdeY\x04H\xf0P@'
p573
tp574
bag2
(g3
(I0
tp575
g5
tp576
Rp577
(I1
(I1
tp578
g12
I00
S'7\xb3\xcaFO\x05Q@'
p579
tp580
bag2
(g3
(I0
tp581
g5
tp582
Rp583
(I1
(I1
tp584
g12
I00
S'\\\xa0\x16J\x8e\x1aQ@'
p585
tp586
bag2
(g3
(I0
tp587
g5
tp588
Rp589
(I1
(I1
tp590
g12
I00
S'\x96\xdcGj\x050Q@'
p591
tp592
bag2
(g3
(I0
tp593
g5
tp594
Rp595
(I1
(I1
tp596
g12
I00
S'\x02\x9di\x04\xb5EQ@'
p597
tp598
bag2
(g3
(I0
tp599
g5
tp600
Rp601
(I1
(I1
tp602
g12
I00
S'\xcfn\xd4u\x9d[Q@'
p603
tp604
bag2
(g3
(I0
tp605
g5
tp606
Rp607
(I1
(I1
tp608
g12
I00
S'\xf2\x0e]\x1b\xbfqQ@'
p609
tp610
bag2
(g3
(I0
tp611
g5
tp612
Rp613
(I1
(I1
tp614
g12
I00
S'\x1b\x87\x19T\x1a\x88Q@'
p615
tp616
bag2
(g3
(I0
tp617
g5
tp618
Rp619
(I1
(I1
tp620
g12
I00
S'*\xe9^}\xaf\x9eQ@'
p621
tp622
bag2
(g3
(I0
tp623
g5
tp624
Rp625
(I1
(I1
tp626
g12
I00
S'\x9b\xc74\xf6~\xb5Q@'
p627
tp628
bag2
(g3
(I0
tp629
g5
tp630
Rp631
(I1
(I1
tp632
g12
I00
S'\x0e?\xc6\x1c\x89\xccQ@'
p633
tp634
bag2
(g3
(I0
tp635
g5
tp636
Rp637
(I1
(I1
tp638
g12
I00
S'\x83}\x02P\xce\xe3Q@'
p639
tp640
bag2
(g3
(I0
tp641
g5
tp642
Rp643
(I1
(I1
tp644
g12
I00
S'\xb3P\xc5\xefN\xfbQ@'
p645
tp646
bag2
(g3
(I0
tp647
g5
tp648
Rp649
(I1
(I1
tp650
g12
I00
S'\xb5\xb4\xdcZ\x0b\x13R@'
p651
tp652
bag2
(g3
(I0
tp653
g5
tp654
Rp655
(I1
(I1
tp656
g12
I00
S'w\xc3.\xf2\x03+R@'
p657
tp658
bag2
(g3
(I0
tp659
g5
tp660
Rp661
(I1
(I1
tp662
g12
I00
S'#v\x83\x159CR@'
p663
tp664
bag2
(g3
(I0
tp665
g5
tp666
Rp667
(I1
(I1
tp668
g12
I00
S'l\x8c\xc9$\xab[R@'
p669
tp670
bag2
(g3
(I0
tp671
g5
tp672
Rp673
(I1
(I1
tp674
g12
I00
S'\x0f\x9co\x81ZtR@'
p675
tp676
bag2
(g3
(I0
tp677
g5
tp678
Rp679
(I1
(I1
tp680
g12
I00
S'J\xae\x84\x8bG\x8dR@'
p681
tp682
bag2
(g3
(I0
tp683
g5
tp684
Rp685
(I1
(I1
tp686
g12
I00
S'%Lj\xa4r\xa6R@'
p687
tp688
bag2
(g3
(I0
tp689
g5
tp690
Rp691
(I1
(I1
tp692
g12
I00
S'b\xf5\x86-\xdc\xbfR@'
p693
tp694
bag2
(g3
(I0
tp695
g5
tp696
Rp697
(I1
(I1
tp698
g12
I00
S'>\x1f,\x87\x84\xd9R@'
p699
tp700
bag2
(g3
(I0
tp701
g5
tp702
Rp703
(I1
(I1
tp704
g12
I00
S'\xe07\\\x13l\xf3R@'
p705
tp706
bag2
(g3
(I0
tp707
g5
tp708
Rp709
(I1
(I1
tp710
g12
I00
S'qG\xb23\x93\rS@'
p711
tp712
bag2
(g3
(I0
tp713
g5
tp714
Rp715
(I1
(I1
tp716
g12
I00
S"\xaf\xf7\xfeH\xfa'S@"
p717
tp718
bag2
(g3
(I0
tp719
g5
tp720
Rp721
(I1
(I1
tp722
g12
I00
S'{\xd95\xb5\xa1BS@'
p723
tp724
bag2
(g3
(I0
tp725
g5
tp726
Rp727
(I1
(I1
tp728
g12
I00
S'\xa2\xbb\x06\xda\x89]S@'
p729
tp730
bag2
(g3
(I0
tp731
g5
tp732
Rp733
(I1
(I1
tp734
g12
I00
S'1~\xae\x18\xb3xS@'
p735
tp736
bag2
(g3
(I0
tp737
g5
tp738
Rp739
(I1
(I1
tp740
g12
I00
S'\x8e\xae\xef\xd2\x1d\x94S@'
p741
tp742
bag2
(g3
(I0
tp743
g5
tp744
Rp745
(I1
(I1
tp746
g12
I00
S':\xfe\xd3j\xca\xafS@'
p747
tp748
bag2
(g3
(I0
tp749
g5
tp750
Rp751
(I1
(I1
tp752
g12
I00
S'\x99|PA\xb9\xcbS@'
p753
tp754
bag2
(g3
(I0
tp755
g5
tp756
Rp757
(I1
(I1
tp758
g12
I00
S'\x1b\xb7M\xb7\xea\xe7S@'
p759
tp760
bag2
(g3
(I0
tp761
g5
tp762
Rp763
(I1
(I1
tp764
g12
I00
S'\xe9\xf2\xc1._\x04T@'
p765
tp766
bag2
(g3
(I0
tp767
g5
tp768
Rp769
(I1
(I1
tp770
g12
I00
S'\xdd`(\t\x17!T@'
p771
tp772
bag2
(g3
(I0
tp773
g5
tp774
Rp775
(I1
(I1
tp776
g12
I00
S'naT\xa7\x12>T@'
p777
tp778
bag2
(g3
(I0
tp779
g5
tp780
Rp781
(I1
(I1
tp782
g12
I00
S'\xd2E\x94iR[T@'
p783
tp784
bag2
(g3
(I0
tp785
g5
tp786
Rp787
(I1
(I1
tp788
g12
I00
S'\x9e:N\xb0\xd6xT@'
p789
tp790
bag2
(g3
(I0
tp791
g5
tp792
Rp793
(I1
(I1
tp794
g12
I00
S'\x8bu\xbf\xdc\x9f\x96T@'
p795
tp796
bag2
(g3
(I0
tp797
g5
tp798
Rp799
(I1
(I1
tp800
g12
I00
S'\x98^\xe1N\xae\xb4T@'
p801
tp802
bag2
(g3
(I0
tp803
g5
tp804
Rp805
(I1
(I1
tp806
g12
I00
S'\x96\x84|f\x02\xd3T@'
p807
tp808
bag2
(g3
(I0
tp809
g5
tp810
Rp811
(I1
(I1
tp812
g12
I00
S'\x96-\xf0\x82\x9c\xf1T@'
p813
tp814
bag2
(g3
(I0
tp815
g5
tp816
Rp817
(I1
(I1
tp818
g12
I00
S'e\x85[\x03}\x10U@'
p819
tp820
bag2
(g3
(I0
tp821
g5
tp822
Rp823
(I1
(I1
tp824
g12
I00
S'\xa3z\xbeF\xa4/U@'
p825
tp826
bag2
(g3
(I0
tp827
g5
tp828
Rp829
(I1
(I1
tp830
g12
I00
S'/\xe9E\xac\x12OU@'
p831
tp832
bag2
(g3
(I0
tp833
g5
tp834
Rp835
(I1
(I1
tp836
g12
I00
S'f\xc2\xb3\x91\xc8nU@'
p837
tp838
bag2
(g3
(I0
tp839
g5
tp840
Rp841
(I1
(I1
tp842
g12
I00
S'\x1e\xf4pT\xc6\x8eU@'
p843
tp844
bag2
(g3
(I0
tp845
g5
tp846
Rp847
(I1
(I1
tp848
g12
I00
S"\xa7'sQ\x0c\xafU@"
p849
tp850
bag2
(g3
(I0
tp851
g5
tp852
Rp853
(I1
(I1
tp854
g12
I00
S'\xbb\xa5\xfb\xe4\x9a\xcfU@'
p855
tp856
bag2
(g3
(I0
tp857
g5
tp858
Rp859
(I1
(I1
tp860
g12
I00
S'\t\x11\xeejr\xf0U@'
p861
tp862
bag2
(g3
(I0
tp863
g5
tp864
Rp865
(I1
(I1
tp866
g12
I00
S'\xdb\x8e\x88>\x93\x11V@'
p867
tp868
bag2
(g3
(I0
tp869
g5
tp870
Rp871
(I1
(I1
tp872
g12
I00
S'p\xdcc\xba\xfd2V@'
p873
tp874
bag2
(g3
(I0
tp875
g5
tp876
Rp877
(I1
(I1
tp878
g12
I00
S'\xa4\xfb\x7f8\xb2TV@'
p879
tp880
bag2
(g3
(I0
tp881
g5
tp882
Rp883
(I1
(I1
tp884
g12
I00
S'\xde\xaf\n\x12\xb1vV@'
p885
tp886
bag2
(g3
(I0
tp887
g5
tp888
Rp889
(I1
(I1
tp890
g12
I00
S'\x90\xfe\xae\x9f\xfa\x98V@'
p891
tp892
bag2
(g3
(I0
tp893
g5
tp894
Rp895
(I1
(I1
tp896
g12
I00
S' z:9\x8f\xbbV@'
p897
tp898
bag2
(g3
(I0
tp899
g5
tp900
Rp901
(I1
(I1
tp902
g12
I00
S'=\xb7L5o\xdeV@'
p903
tp904
bag2
(g3
(I0
tp905
g5
tp906
Rp907
(I1
(I1
tp908
g12
I00
S'$Ia\xe9\x9a\x01W@'
p909
tp910
bag2
(g3
(I0
tp911
g5
tp912
Rp913
(I1
(I1
tp914
g12
I00
S'\xfc\xe8<\xaa\x12%W@'
p915
tp916
bag2
(g3
(I0
tp917
g5
tp918
Rp919
(I1
(I1
tp920
g12
I00
S'\xa6\x1b@\xcc\xd6HW@'
p921
tp922
bag2
(g3
(I0
tp923
g5
tp924
Rp925
(I1
(I1
tp926
g12
I00
S'\x0f\xb3\x1e\xa2\xe7lW@'
p927
tp928
bag2
(g3
(I0
tp929
g5
tp930
Rp931
(I1
(I1
tp932
g12
I00
S'\xd6\x7fA}E\x91W@'
p933
tp934
bag2
(g3
(I0
tp935
g5
tp936
Rp937
(I1
(I1
tp938
g12
I00
S'X\xc90\xae\xf0\xb5W@'
p939
tp940
bag2
(g3
(I0
tp941
g5
tp942
Rp943
(I1
(I1
tp944
g12
I00
S'Q\x9b\xe7\x83\xe9\xdaW@'
p945
tp946
bag2
(g3
(I0
tp947
g5
tp948
Rp949
(I1
(I1
tp950
g12
I00
S'\xa6\x84\xb2M0\x00X@'
p951
tp952
bag2
(g3
(I0
tp953
g5
tp954
Rp955
(I1
(I1
tp956
g12
I00
S'\xab\x19EX\xc5%X@'
p957
tp958
bag2
(g3
(I0
tp959
g5
tp960
Rp961
(I1
(I1
tp962
g12
I00
S'6\xde\x98\xee\xa8KX@'
p963
tp964
bag2
(g3
(I0
tp965
g5
tp966
Rp967
(I1
(I1
tp968
g12
I00
S'w\x17I[\xdbqX@'
p969
tp970
bag2
(g3
(I0
tp971
g5
tp972
Rp973
(I1
(I1
tp974
g12
I00
S'\x0b\xb4\xe0\xe7\\\x98X@'
p975
tp976
bag2
(g3
(I0
tp977
g5
tp978
Rp979
(I1
(I1
tp980
g12
I00
S'V\xc0\x08\xdb-\xbfX@'
p981
tp982
bag2
(g3
(I0
tp983
g5
tp984
Rp985
(I1
(I1
tp986
g12
I00
S'\xeem\xb4{N\xe6X@'
p987
tp988
bag2
(g3
(I0
tp989
g5
tp990
Rp991
(I1
(I1
tp992
g12
I00
S'\r[!\x0e\xbf\rY@'
p993
tp994
bag2
(g3
(I0
tp995
g5
tp996
Rp997
(I1
(I1
tp998
g12
I00
S'\x81\xe5M\xd4\x7f5Y@'
p999
tp1000
bag2
(g3
(I0
tp1001
g5
tp1002
Rp1003
(I1
(I1
tp1004
g12
I00
S'\xd3\x89\xd2\x0f\x91]Y@'
p1005
tp1006
bag2
(g3
(I0
tp1007
g5
tp1008
Rp1009
(I1
(I1
tp1010
g12
I00
S'\x95a\xea\xfe\xf2\x85Y@'
p1011
tp1012
bag2
(g3
(I0
tp1013
g5
tp1014
Rp1015
(I1
(I1
tp1016
g12
I00
S'\xf5\xf7\xbf\xdf\xa5\xaeY@'
p1017
tp1018
bag2
(g3
(I0
tp1019
g5
tp1020
Rp1021
(I1
(I1
tp1022
g12
I00
S'z8\xd9\xec\xa9\xd7Y@'
p1023
tp1024
bag2
(g3
(I0
tp1025
g5
tp1026
Rp1027
(I1
(I1
tp1028
g12
I00
S'@$\xeb_\xff\x00Z@'
p1029
tp1030
bag2
(g3
(I0
tp1031
g5
tp1032
Rp1033
(I1
(I1
tp1034
g12
I00
S'\x93\xbaxp\xa6*Z@'
p1035
tp1036
bag2
(g3
(I0
tp1037
g5
tp1038
Rp1039
(I1
(I1
tp1040
g12
I00
S'\xd2\x14\xc8R\x9fTZ@'
p1041
tp1042
bag2
(g3
(I0
tp1043
g5
tp1044
Rp1045
(I1
(I1
tp1046
g12
I00
S'S\xf4R;\xea~Z@'
p1047
tp1048
bag2
(g3
(I0
tp1049
g5
tp1050
Rp1051
(I1
(I1
tp1052
g12
I00
S'x\x95xZ\x87\xa9Z@'
p1053
tp1054
bag2
(g3
(I0
tp1055
g5
tp1056
Rp1057
(I1
(I1
tp1058
g12
I00
S'\xdf[\x86\xdev\xd4Z@'
p1059
tp1060
bag2
(g3
(I0
tp1061
g5
tp1062
Rp1063
(I1
(I1
tp1064
g12
I00
S'\x8fdV\xf4\xb8\xffZ@'
p1065
tp1066
bag2
(g3
(I0
tp1067
g5
tp1068
Rp1069
(I1
(I1
tp1070
g12
I00
S'@L\x88\xc6M+[@'
p1071
tp1072
bag2
(g3
(I0
tp1073
g5
tp1074
Rp1075
(I1
(I1
tp1076
g12
I00
S'\xac)2|5W[@'
p1077
tp1078
bag2
(g3
(I0
tp1079
g5
tp1080
Rp1081
(I1
(I1
tp1082
g12
I00
S'\xfa\x1c*:p\x83[@'
p1083
tp1084
bag2
(g3
(I0
tp1085
g5
tp1086
Rp1087
(I1
(I1
tp1088
g12
I00
S'\xf7S\xe4"\xfe\xaf[@'
p1089
tp1090
bag2
(g3
(I0
tp1091
g5
tp1092
Rp1093
(I1
(I1
tp1094
g12
I00
S'7\xe8\x15V\xdf\xdc[@'
p1095
tp1096
bag2
(g3
(I0
tp1097
g5
tp1098
Rp1099
(I1
(I1
tp1100
g12
I00
S'\x9a$\xb4\xf0\x13\n\\@'
p1101
tp1102
bag2
(g3
(I0
tp1103
g5
tp1104
Rp1105
(I1
(I1
tp1106
g12
I00
S'\xa4\xba\x05\r\x9c7\\@'
p1107
tp1108
bag2
(g3
(I0
tp1109
g5
tp1110
Rp1111
(I1
(I1
tp1112
g12
I00
S',\xdbN\xc2we\\@'
p1113
tp1114
bag2
(g3
(I0
tp1115
g5
tp1116
Rp1117
(I1
(I1
tp1118
g12
I00
S'\xbb\xde\xf8$\xa7\x93\\@'
p1119
tp1120
bag2
(g3
(I0
tp1121
g5
tp1122
Rp1123
(I1
(I1
tp1124
g12
I00
S'\xa7\xfc\x81F*\xc2\\@'
p1125
tp1126
bag2
(g3
(I0
tp1127
g5
tp1128
Rp1129
(I1
(I1
tp1130
g12
I00
S'S\xea35\x01\xf1\\@'
p1131
tp1132
bag2
(g3
(I0
tp1133
g5
tp1134
Rp1135
(I1
(I1
tp1136
g12
I00
S'<k\x0b\xfc+ ]@'
p1137
tp1138
bag2
(g3
(I0
tp1139
g5
tp1140
Rp1141
(I1
(I1
tp1142
g12
I00
S'AdZ\xa2\xaaO]@'
p1143
tp1144
bag2
(g3
(I0
tp1145
g5
tp1146
Rp1147
(I1
(I1
tp1148
g12
I00
S'\xe4oc,}\x7f]@'
p1149
tp1150
bag2
(g3
(I0
tp1151
g5
tp1152
Rp1153
(I1
(I1
tp1154
g12
I00
S'Vli\x9c\xa3\xaf]@'
p1155
tp1156
bag2
(g3
(I0
tp1157
g5
tp1158
Rp1159
(I1
(I1
tp1160
g12
I00
S'\x9a0X\xef\x1d\xe0]@'
p1161
tp1162
bag2
(g3
(I0
tp1163
g5
tp1164
Rp1165
(I1
(I1
tp1166
g12
I00
S'Vt+\x1e\xec\x10^@'
p1167
tp1168
bag2
(g3
(I0
tp1169
g5
tp1170
Rp1171
(I1
(I1
tp1172
g12
I00
S'g\xbf\xc6 \x0eB^@'
p1173
tp1174
bag2
(g3
(I0
tp1175
g5
tp1176
Rp1177
(I1
(I1
tp1178
g12
I00
S'\xbb\x1e\x80\xe8\x83s^@'
p1179
tp1180
bag2
(g3
(I0
tp1181
g5
tp1182
Rp1183
(I1
(I1
tp1184
g12
I00
S'\xc7\xa0\x8adM\xa5^@'
p1185
tp1186
bag2
(g3
(I0
tp1187
g5
tp1188
Rp1189
(I1
(I1
tp1190
g12
I00
S'\x03as\x7fj\xd7^@'
p1191
tp1192
bag2
(g3
(I0
tp1193
g5
tp1194
Rp1195
(I1
(I1
tp1196
g12
I00
S'\xdb&7 \xdb\t_@'
p1197
tp1198
bag2
(g3
(I0
tp1199
g5
tp1200
Rp1201
(I1
(I1
tp1202
g12
I00
S'\x99\x88\x8a(\x9f<_@'
p1203
tp1204
bag2
(g3
(I0
tp1205
g5
tp1206
Rp1207
(I1
(I1
tp1208
g12
I00
S'\xce\x92Ax\xb6o_@'
p1209
tp1210
bag2
(g3
(I0
tp1211
g5
tp1212
Rp1213
(I1
(I1
tp1214
g12
I00
S'$\x85\x8b\xe8 \xa3_@'
p1215
tp1216
bag2
(g3
(I0
tp1217
g5
tp1218
Rp1219
(I1
(I1
tp1220
g12
I00
S'%\x19\xdaN\xde\xd6_@'
p1221
tp1222
bag2
(g3
(I0
tp1223
g5
tp1224
Rp1225
(I1
(I1
tp1226
g12
I00
S'i\x90\xec>w\x05`@'
p1227
tp1228
bag2
(g3
(I0
tp1229
g5
tp1230
Rp1231
(I1
(I1
tp1232
g12
I00
S'\xf6\xb0\x08\xa1\xa8\x1f`@'
p1233
tp1234
bag2
(g3
(I0
tp1235
g5
tp1236
Rp1237
(I1
(I1
tp1238
g12
I00
S'\x11\xb2\xc81\x03:`@'
p1239
tp1240
bag2
(g3
(I0
tp1241
g5
tp1242
Rp1243
(I1
(I1
tp1244
g12
I00
S'\r\xdd\xf0\xd2\x86T`@'
p1245
tp1246
bag2
(g3
(I0
tp1247
g5
tp1248
Rp1249
(I1
(I1
tp1250
g12
I00
S'V\xf4\xedc3o`@'
p1251
tp1252
bag2
(g3
(I0
tp1253
g5
tp1254
Rp1255
(I1
(I1
tp1256
g12
I00
S'\n\x93\xc7\xc1\x08\x8a`@'
p1257
tp1258
bag2
(g3
(I0
tp1259
g5
tp1260
Rp1261
(I1
(I1
tp1262
g12
I00
S'\xda2\x04\xc7\x06\xa5`@'
p1263
tp1264
bag2
(g3
(I0
tp1265
g5
tp1266
Rp1267
(I1
(I1
tp1268
g12
I00
S'\xe5}\x9cK-\xc0`@'
p1269
tp1270
bag2
(g3
(I0
tp1271
g5
tp1272
Rp1273
(I1
(I1
tp1274
g12
I00
S'\xae\x86\xf0$|\xdb`@'
p1275
tp1276
bag2
(g3
(I0
tp1277
g5
tp1278
Rp1279
(I1
(I1
tp1280
g12
I00
S'V\x9d\xb0%\xf3\xf6`@'
p1281
tp1282
bag2
(g3
(I0
tp1283
g5
tp1284
Rp1285
(I1
(I1
tp1286
g12
I00
S'z\x8b\xc6\x1d\x92\x12a@'
p1287
tp1288
bag2
(g3
(I0
tp1289
g5
tp1290
Rp1291
(I1
(I1
tp1292
g12
I00
S'\xaf\x06\x9d\xdaX.a@'
p1293
tp1294
bag2
(g3
(I0
tp1295
g5
tp1296
Rp1297
(I1
(I1
tp1298
g12
I00
S"\xcc\xe8M'GJa@"
p1299
tp1300
bag2
(g3
(I0
tp1301
g5
tp1302
Rp1303
(I1
(I1
tp1304
g12
I00
S'?\\*\xcb\\fa@'
p1305
tp1306
bag2
(g3
(I0
tp1307
g5
tp1308
Rp1309
(I1
(I1
tp1310
g12
I00
S'\x00\xc9)\x8b\x99\x82a@'
p1311
tp1312
bag2
(g3
(I0
tp1313
g5
tp1314
Rp1315
(I1
(I1
tp1316
g12
I00
S'\xb5p\x95)\xfd\x9ea@'
p1317
tp1318
bag2
(g3
(I0
tp1319
g5
tp1320
Rp1321
(I1
(I1
tp1322
g12
I00
S'f6\x18e\x87\xbba@'
p1323
tp1324
bag2
(g3
(I0
tp1325
g5
tp1326
Rp1327
(I1
(I1
tp1328
g12
I00
S'\r\xcf \xfa7\xd8a@'
p1329
tp1330
bag2
(g3
(I0
tp1331
g5
tp1332
Rp1333
(I1
(I1
tp1334
g12
I00
S'\xae\x86\x90\xa1\x0e\xf5a@'
p1335
tp1336
bag2
(g3
(I0
tp1337
g5
tp1338
Rp1339
(I1
(I1
tp1340
g12
I00
S'q\x84\xd1\x10\x0b\x12b@'
p1341
tp1342
bag2
(g3
(I0
tp1343
g5
tp1344
Rp1345
(I1
(I1
tp1346
g12
I00
S'\xc2\xb3\x8a\xfb,/b@'
p1347
tp1348
bag2
(g3
(I0
tp1349
g5
tp1350
Rp1351
(I1
(I1
tp1352
g12
I00
S'\x81\x86\xf7\x10tLb@'
p1353
tp1354
bag2
(g3
(I0
tp1355
g5
tp1356
Rp1357
(I1
(I1
tp1358
g12
I00
S'r;;\xfd\xdfib@'
p1359
tp1360
bag2
(g3
(I0
tp1361
g5
tp1362
Rp1363
(I1
(I1
tp1364
g12
I00
S'C\xd2Kip\x87b@'
p1365
tp1366
bag2
(g3
(I0
tp1367
g5
tp1368
Rp1369
(I1
(I1
tp1370
g12
I00
S'~\x94\xdc\xfa$\xa5b@'
p1371
tp1372
bag2
(g3
(I0
tp1373
g5
tp1374
Rp1375
(I1
(I1
tp1376
g12
I00
S"'1HT\xfd\xc2b@"
p1377
tp1378
bag2
(g3
(I0
tp1379
g5
tp1380
Rp1381
(I1
(I1
tp1382
g12
I00
S'\xaehz\x14\xf9\xe0b@'
p1383
tp1384
bag2
(g3
(I0
tp1385
g5
tp1386
Rp1387
(I1
(I1
tp1388
g12
I00
S'\xd5F\xd9\xd6\x17\xffb@'
p1389
tp1390
bag2
(g3
(I0
tp1391
g5
tp1392
Rp1393
(I1
(I1
tp1394
g12
I00
S'!\xe8-3Y\x1dc@'
p1395
tp1396
bag2
(g3
(I0
tp1397
g5
tp1398
Rp1399
(I1
(I1
tp1400
g12
I00
S'a\xc8\x8c\xbd\xbc;c@'
p1401
tp1402
bag2
(g3
(I0
tp1403
g5
tp1404
Rp1405
(I1
(I1
tp1406
g12
I00
S'\xcf\x97=\x06BZc@'
p1407
tp1408
bag2
(g3
(I0
tp1409
g5
tp1410
Rp1411
(I1
(I1
tp1412
g12
I00
S'\x03?H\x9a\xe8xc@'
p1413
tp1414
bag2
(g3
(I0
tp1415
g5
tp1416
Rp1417
(I1
(I1
tp1418
g12
I00
S'+T\x12\x03\xb0\x97c@'
p1419
tp1420
bag2
(g3
(I0
tp1421
g5
tp1422
Rp1423
(I1
(I1
tp1424
g12
I00
S'\xba\x8a,\xc5\x97\xb6c@'
p1425
tp1426
bag2
(g3
(I0
tp1427
g5
tp1428
Rp1429
(I1
(I1
tp1430
g12
I00
S'\xb8\xaa\xe1b\x9f\xd5c@'
p1431
tp1432
bag2
(g3
(I0
tp1433
g5
tp1434
Rp1435
(I1
(I1
tp1436
g12
I00
S'n\xd0\xc6X\xc6\xf4c@'
p1437
tp1438
bag2
(g3
(I0
tp1439
g5
tp1440
Rp1441
(I1
(I1
tp1442
g12
I00
S'\xdd{o!\x0c\x14d@'
p1443
tp1444
bag2
(g3
(I0
tp1445
g5
tp1446
Rp1447
(I1
(I1
tp1448
g12
I00
S'\xf9m\xc91p3d@'
p1449
tp1450
bag2
(g3
(I0
tp1451
g5
tp1452
Rp1453
(I1
(I1
tp1454
g12
I00
S'-\xd8\x17\xfb\xf1Rd@'
p1455
tp1456
bag2
(g3
(I0
tp1457
g5
tp1458
Rp1459
(I1
(I1
tp1460
g12
I00
S'\x1f5s\xeb\x90rd@'
p1461
tp1462
bag2
(g3
(I0
tp1463
g5
tp1464
Rp1465
(I1
(I1
tp1466
g12
I00
S'@\xdf\xdbkL\x92d@'
p1467
tp1468
bag2
(g3
(I0
tp1469
g5
tp1470
Rp1471
(I1
(I1
tp1472
g12
I00
S'\xfa}<\xe1#\xb2d@'
p1473
tp1474
bag2
(g3
(I0
tp1475
g5
tp1476
Rp1477
(I1
(I1
tp1478
g12
I00
S'JwO\xac\x16\xd2d@'
p1479
tp1480
bag2
(g3
(I0
tp1481
g5
tp1482
Rp1483
(I1
(I1
tp1484
g12
I00
S'\x90\x10\x7f)$\xf2d@'
p1485
tp1486
bag2
(g3
(I0
tp1487
g5
tp1488
Rp1489
(I1
(I1
tp1490
g12
I00
S'Q\x8f\xc9\xb0K\x12e@'
p1491
tp1492
bag2
(g3
(I0
tp1493
g5
tp1494
Rp1495
(I1
(I1
tp1496
g12
I00
S'H^\xb4\x95\x8c2e@'
p1497
tp1498
bag2
(g3
(I0
tp1499
g5
tp1500
Rp1501
(I1
(I1
tp1502
g12
I00
S"\x00\xb3)'\xe6Re@"
p1503
tp1504
bag2
(g3
(I0
tp1505
g5
tp1506
Rp1507
(I1
(I1
tp1508
g12
I00
S'>WF\xb0Wse@'
p1509
tp1510
bag2
(g3
(I0
tp1511
g5
tp1512
Rp1513
(I1
(I1
tp1514
g12
I00
S'0\xa3\tw\xe0\x93e@'
p1515
tp1516
bag2
(g3
(I0
tp1517
g5
tp1518
Rp1519
(I1
(I1
tp1520
g12
I00
S'\x07\xac:\xbc\x7f\xb4e@'
p1521
tp1522
bag2
(g3
(I0
tp1523
g5
tp1524
Rp1525
(I1
(I1
tp1526
g12
I00
S'\x1b\xe6R\xbd4\xd5e@'
p1527
tp1528
bag2
(g3
(I0
tp1529
g5
tp1530
Rp1531
(I1
(I1
tp1532
g12
I00
S'\xbc\xbcd\xb1\xfe\xf5e@'
p1533
tp1534
bag2
(g3
(I0
tp1535
g5
tp1536
Rp1537
(I1
(I1
tp1538
g12
I00
S'L/O\xcc\xdc\x16f@'
p1539
tp1540
bag2
(g3
(I0
tp1541
g5
tp1542
Rp1543
(I1
(I1
tp1544
g12
I00
S'\x1a\xda\xa7;\xce7f@'
p1545
tp1546
bag2
(g3
(I0
tp1547
g5
tp1548
Rp1549
(I1
(I1
tp1550
g12
I00
S'E1\xce(\xd2Xf@'
p1551
tp1552
bag2
(g3
(I0
tp1553
g5
tp1554
Rp1555
(I1
(I1
tp1556
g12
I00
S'\x89\xf7\x97\xb8\xe7yf@'
p1557
tp1558
bag2
(g3
(I0
tp1559
g5
tp1560
Rp1561
(I1
(I1
tp1562
g12
I00
S'Y\xb4B\n\x0e\x9bf@'
p1563
tp1564
bag2
(g3
(I0
tp1565
g5
tp1566
Rp1567
(I1
(I1
tp1568
g12
I00
S'}\x90\x058D\xbcf@'
p1569
tp1570
bag2
(g3
(I0
tp1571
g5
tp1572
Rp1573
(I1
(I1
tp1574
g12
I00
S't\xe4\x07W\x89\xddf@'
p1575
tp1576
bag2
(g3
(I0
tp1577
g5
tp1578
Rp1579
(I1
(I1
tp1580
g12
I00
S'5\xc4Rw\xdc\xfef@'
p1581
tp1582
bag2
(g3
(I0
tp1583
g5
tp1584
Rp1585
(I1
(I1
tp1586
g12
I00
S'\xe7\xa4\xaa\xa3< g@'
p1587
tp1588
bag2
(g3
(I0
tp1589
g5
tp1590
Rp1591
(I1
(I1
tp1592
g12
I00
S'~\x1bi\xe1\xa8Ag@'
p1593
tp1594
bag2
(g3
(I0
tp1595
g5
tp1596
Rp1597
(I1
(I1
tp1598
g12
I00
S'\x08\xe4\xc40 cg@'
p1599
tp1600
bag2
(g3
(I0
tp1601
g5
tp1602
Rp1603
(I1
(I1
tp1604
g12
I00
S'\x0bz\x04\x8d\xa1\x84g@'
p1605
tp1606
bag2
(g3
(I0
tp1607
g5
tp1608
Rp1609
(I1
(I1
tp1610
g12
I00
S'\x16\x82\xfb\xea+\xa6g@'
p1611
tp1612
bag2
(g3
(I0
tp1613
g5
tp1614
Rp1615
(I1
(I1
tp1616
g12
I00
S'C\x8c\xfb:\xbe\xc7g@'
p1617
tp1618
bag2
(g3
(I0
tp1619
g5
tp1620
Rp1621
(I1
(I1
tp1622
g12
I00
S'\xd2\x9f\xb7fW\xe9g@'
p1623
tp1624
bag2
(g3
(I0
tp1625
g5
tp1626
Rp1627
(I1
(I1
tp1628
g12
I00
S'\xb5\x06`S\xf6\nh@'
p1629
tp1630
bag2
(g3
(I0
tp1631
g5
tp1632
Rp1633
(I1
(I1
tp1634
g12
I00
S'2\xbdZ\xdf\x99,h@'
p1635
tp1636
bag2
(g3
(I0
tp1637
g5
tp1638
Rp1639
(I1
(I1
tp1640
g12
I00
S'\xc7\xd0\x12\xe4@Nh@'
p1641
tp1642
bag2
(g3
(I0
tp1643
g5
tp1644
Rp1645
(I1
(I1
tp1646
g12
I00
S'\x12\xb0\x8e5\xeaoh@'
p1647
tp1648
bag2
(g3
(I0
tp1649
g5
tp1650
Rp1651
(I1
(I1
tp1652
g12
I00
S'q\xd5R\xa1\x94\x91h@'
p1653
tp1654
bag2
(g3
(I0
tp1655
g5
tp1656
Rp1657
(I1
(I1
tp1658
g12
I00
S'\x80\xc9N\xef>\xb3h@'
p1659
tp1660
bag2
(g3
(I0
tp1661
g5
tp1662
Rp1663
(I1
(I1
tp1664
g12
I00
S'u\x15\x90\xe1\xe7\xd4h@'
p1665
tp1666
bag2
(g3
(I0
tp1667
g5
tp1668
Rp1669
(I1
(I1
tp1670
g12
I00
S'\xdd\r\xe53\x8e\xf6h@'
p1671
tp1672
bag2
(g3
(I0
tp1673
g5
tp1674
Rp1675
(I1
(I1
tp1676
g12
I00
S'\x90ZX\x9c0\x18i@'
p1677
tp1678
bag2
(g3
(I0
tp1679
g5
tp1680
Rp1681
(I1
(I1
tp1682
g12
I00
S'#\x12e\xcb\xcd9i@'
p1683
tp1684
bag2
(g3
(I0
tp1685
g5
tp1686
Rp1687
(I1
(I1
tp1688
g12
I00
S'/\xff\x89jd[i@'
p1689
tp1690
bag2
(g3
(I0
tp1691
g5
tp1692
Rp1693
(I1
(I1
tp1694
g12
I00
S'\xf8pc\x1d\xf3|i@'
p1695
tp1696
bag2
(g3
(I0
tp1697
g5
tp1698
Rp1699
(I1
(I1
tp1700
g12
I00
S'(\xcc&\x82x\x9ei@'
p1701
tp1702
bag2
(g3
(I0
tp1703
g5
tp1704
Rp1705
(I1
(I1
tp1706
g12
I00
S'\xec\xf5\xcc/\xf3\xbfi@'
p1707
tp1708
bag2
(g3
(I0
tp1709
g5
tp1710
Rp1711
(I1
(I1
tp1712
g12
I00
S'b\x1d\xb1\xb7a\xe1i@'
p1713
tp1714
bag2
(g3
(I0
tp1715
g5
tp1716
Rp1717
(I1
(I1
tp1718
g12
I00
S'\x19\x83\xc4\xa5\xc2\x02j@'
p1719
tp1720
bag2
(g3
(I0
tp1721
g5
tp1722
Rp1723
(I1
(I1
tp1724
g12
I00
S'Z)\x98~\x14$j@'
p1725
tp1726
bag2
(g3
(I0
tp1727
g5
tp1728
Rp1729
(I1
(I1
tp1730
g12
I00
S'\xe1\xc5j\xc0UEj@'
p1731
tp1732
bag2
(g3
(I0
tp1733
g5
tp1734
Rp1735
(I1
(I1
tp1736
g12
I00
S'\xbd\xda\n\xe3\x84fj@'
p1737
tp1738
bag2
(g3
(I0
tp1739
g5
tp1740
Rp1741
(I1
(I1
tp1742
g12
I00
S'2\xc2\xc5W\xa0\x87j@'
p1743
tp1744
bag2
(g3
(I0
tp1745
g5
tp1746
Rp1747
(I1
(I1
tp1748
g12
I00
S'nv\x8a\x89\xa6\xa8j@'
p1749
tp1750
bag2
(g3
(I0
tp1751
g5
tp1752
Rp1753
(I1
(I1
tp1754
g12
I00
S'.\x9a_\xdc\x95\xc9j@'
p1755
tp1756
bag2
(g3
(I0
tp1757
g5
tp1758
Rp1759
(I1
(I1
tp1760
g12
I00
S'|@1\xael\xeaj@'
p1761
tp1762
bag2
(g3
(I0
tp1763
g5
tp1764
Rp1765
(I1
(I1
tp1766
g12
I00
S'Hl@V)\x0bk@'
p1767
tp1768
bag2
(g3
(I0
tp1769
g5
tp1770
Rp1771
(I1
(I1
tp1772
g12
I00
S'\xd8\x168$\xca+k@'
p1773
tp1774
bag2
(g3
(I0
tp1775
g5
tp1776
Rp1777
(I1
(I1
tp1778
g12
I00
S'\xcc\x97icMLk@'
p1779
tp1780
bag2
(g3
(I0
tp1781
g5
tp1782
Rp1783
(I1
(I1
tp1784
g12
I00
S'\x96p\xd1V\xb1lk@'
p1785
tp1786
bag2
(g3
(I0
tp1787
g5
tp1788
Rp1789
(I1
(I1
tp1790
g12
I00
S'~\r\xd8:\xf4\x8ck@'
p1791
tp1792
bag2
(g3
(I0
tp1793
g5
tp1794
Rp1795
(I1
(I1
tp1796
g12
I00
S'\xe6\x82\x16F\x14\xadk@'
p1797
tp1798
bag2
(g3
(I0
tp1799
g5
tp1800
Rp1801
(I1
(I1
tp1802
g12
I00
S'];y\xa7\x0f\xcdk@'
p1803
tp1804
bag2
(g3
(I0
tp1805
g5
tp1806
Rp1807
(I1
(I1
tp1808
g12
I00
S'\x8f\xfbB\x87\xe4\xeck@'
p1809
tp1810
bag2
(g3
(I0
tp1811
g5
tp1812
Rp1813
(I1
(I1
tp1814
g12
I00
S'\x19J\xd9\x06\x91\x0cl@'
p1815
tp1816
bag2
(g3
(I0
tp1817
g5
tp1818
Rp1819
(I1
(I1
tp1820
g12
I00
S'\x0c\x01TA\x13,l@'
p1821
tp1822
bag2
(g3
(I0
tp1823
g5
tp1824
Rp1825
(I1
(I1
tp1826
g12
I00
S'TcuKiKl@'
p1827
tp1828
bag2
(g3
(I0
tp1829
g5
tp1830
Rp1831
(I1
(I1
tp1832
g12
I00
S'\x1cX>2\x91jl@'
p1833
tp1834
bag2
(g3
(I0
tp1835
g5
tp1836
Rp1837
(I1
(I1
tp1838
g12
I00
S'{Z$\xfc\x88\x89l@'
p1839
tp1840
bag2
(g3
(I0
tp1841
g5
tp1842
Rp1843
(I1
(I1
tp1844
g12
I00
S'\xde;\xcc\xa8N\xa8l@'
p1845
tp1846
bag2
(g3
(I0
tp1847
g5
tp1848
Rp1849
(I1
(I1
tp1850
g12
I00
S'\x85\xb0\x041\xe0\xc6l@'
p1851
tp1852
bag2
(g3
(I0
tp1853
g5
tp1854
Rp1855
(I1
(I1
tp1856
g12
I00
S'\xb1\xb2\xcb\x86;\xe5l@'
p1857
tp1858
bag2
(g3
(I0
tp1859
g5
tp1860
Rp1861
(I1
(I1
tp1862
g12
I00
S'Tj\x93\x95^\x03m@'
p1863
tp1864
bag2
(g3
(I0
tp1865
g5
tp1866
Rp1867
(I1
(I1
tp1868
g12
I00
S'\xe7F\xfaAG!m@'
p1869
tp1870
bag2
(g3
(I0
tp1871
g5
tp1872
Rp1873
(I1
(I1
tp1874
g12
I00
S'u\xd1\x14j\xf3>m@'
p1875
tp1876
bag2
(g3
(I0
tp1877
g5
tp1878
Rp1879
(I1
(I1
tp1880
g12
I00
S'\xa9E\xe3\xe4`\\m@'
p1881
tp1882
bag2
(g3
(I0
tp1883
g5
tp1884
Rp1885
(I1
(I1
tp1886
g12
I00
S'\xef\xcan\x83\x8dym@'
p1887
tp1888
bag2
(g3
(I0
tp1889
g5
tp1890
Rp1891
(I1
(I1
tp1892
g12
I00
S'\nKU\x0fw\x96m@'
p1893
tp1894
bag2
(g3
(I0
tp1895
g5
tp1896
Rp1897
(I1
(I1
tp1898
g12
I00
S'&\x93_K\x1b\xb3m@'
p1899
tp1900
bag2
(g3
(I0
tp1901
g5
tp1902
Rp1903
(I1
(I1
tp1904
g12
I00
S'N\xbdD\xf5w\xcfm@'
p1905
tp1906
bag2
(g3
(I0
tp1907
g5
tp1908
Rp1909
(I1
(I1
tp1910
g12
I00
S'\x90\\e\xc2\x8a\xebm@'
p1911
tp1912
bag2
(g3
(I0
tp1913
g5
tp1914
Rp1915
(I1
(I1
tp1916
g12
I00
S'=/nbQ\x07n@'
p1917
tp1918
bag2
(g3
(I0
tp1919
g5
tp1920
Rp1921
(I1
(I1
tp1922
g12
I00
S',D\xa4~\xc9"n@'
p1923
tp1924
bag2
(g3
(I0
tp1925
g5
tp1926
Rp1927
(I1
(I1
tp1928
g12
I00
S'B\xc8\xc9\xb8\xf0=n@'
p1929
tp1930
bag2
(g3
(I0
tp1931
g5
tp1932
Rp1933
(I1
(I1
tp1934
g12
I00
S'\xcc\xe3\x12\xad\xc4Xn@'
p1935
tp1936
bag2
(g3
(I0
tp1937
g5
tp1938
Rp1939
(I1
(I1
tp1940
g12
I00
S'q\x188\xf1Bsn@'
p1941
tp1942
bag2
(g3
(I0
tp1943
g5
tp1944
Rp1945
(I1
(I1
tp1946
g12
I00
S'\xee\x9e\xbf\x15i\x8dn@'
p1947
tp1948
bag2
(g3
(I0
tp1949
g5
tp1950
Rp1951
(I1
(I1
tp1952
g12
I00
S'1\xdbf\xa44\xa7n@'
p1953
tp1954
bag2
(g3
(I0
tp1955
g5
tp1956
Rp1957
(I1
(I1
tp1958
g12
I00
S'#\x91\x06 \xa3\xc0n@'
p1959
tp1960
bag2
(g3
(I0
tp1961
g5
tp1962
Rp1963
(I1
(I1
tp1964
g12
I00
S'Wa\x90\x06\xb2\xd9n@'
p1965
tp1966
bag2
(g3
(I0
tp1967
g5
tp1968
Rp1969
(I1
(I1
tp1970
g12
I00
S'\xd5I\xf6\xce^\xf2n@'
p1971
tp1972
bag2
(g3
(I0
tp1973
g5
tp1974
Rp1975
(I1
(I1
tp1976
g12
I00
S'=\x8c\x87\xea\xa6\no@'
p1977
tp1978
bag2
(g3
(I0
tp1979
g5
tp1980
Rp1981
(I1
(I1
tp1982
g12
I00
S'\x153\x8d\xc5\x87"o@'
p1983
tp1984
bag2
(g3
(I0
tp1985
g5
tp1986
Rp1987
(I1
(I1
tp1988
g12
I00
S'l\xfeX\xc6\xfe9o@'
p1989
tp1990
bag2
(g3
(I0
tp1991
g5
tp1992
Rp1993
(I1
(I1
tp1994
g12
I00
S'b\x83\xa2M\tQo@'
p1995
tp1996
bag2
(g3
(I0
tp1997
g5
tp1998
Rp1999
(I1
(I1
tp2000
g12
I00
S'K<\xa5\xb6\xa4go@'
p2001
tp2002
bag2
(g3
(I0
tp2003
g5
tp2004
Rp2005
(I1
(I1
tp2006
g12
I00
S'1\xb6}W\xce}o@'
p2007
tp2008
bag2
(g3
(I0
tp2009
g5
tp2010
Rp2011
(I1
(I1
tp2012
g12
I00
S':\xb7\xc5\x80\x83\x93o@'
p2013
tp2014
bag2
(g3
(I0
tp2015
g5
tp2016
Rp2017
(I1
(I1
tp2018
g12
I00
S'\xed*\x87~\xc1\xa8o@'
p2019
tp2020
bag2
(g3
(I0
tp2021
g5
tp2022
Rp2023
(I1
(I1
tp2024
g12
I00
S'Z\xa6\xbe\x97\x85\xbdo@'
p2025
tp2026
bag2
(g3
(I0
tp2027
g5
tp2028
Rp2029
(I1
(I1
tp2030
g12
I00
S'y#!\x10\xcd\xd1o@'
p2031
tp2032
bag2
(g3
(I0
tp2033
g5
tp2034
Rp2035
(I1
(I1
tp2036
g12
I00
S'Y\xaf_&\x95\xe5o@'
p2037
tp2038
bag2
(g3
(I0
tp2039
g5
tp2040
Rp2041
(I1
(I1
tp2042
g12
I00
S'\xbbwO\x15\xdb\xf8o@'
p2043
tp2044
bag2
(g3
(I0
tp2045
g5
tp2046
Rp2047
(I1
(I1
tp2048
g12
I00
S'\xc8\xea\xc0\t\xce\x05p@'
p2049
tp2050
bag2
(g3
(I0
tp2051
g5
tp2052
Rp2053
(I1
(I1
tp2054
g12
I00
S'\xe0\rN\xaa\xea\x0ep@'
p2055
tp2056
bag2
(g3
(I0
tp2057
g5
tp2058
Rp2059
(I1
(I1
tp2060
g12
I00
S'.\x96\xe7\x04\xc2\x17p@'
p2061
tp2062
bag2
(g3
(I0
tp2063
g5
tp2064
Rp2065
(I1
(I1
tp2066
g12
I00
S'WO\xef\xafR p@'
p2067
tp2068
bag2
(g3
(I0
tp2069
g5
tp2070
Rp2071
(I1
(I1
tp2072
g12
I00
S'\xe5\xb4\x93@\x9b(p@'
p2073
tp2074
bag2
(g3
(I0
tp2075
g5
tp2076
Rp2077
(I1
(I1
tp2078
g12
I00
S'\xe4\xed\xe5J\x9a0p@'
p2079
tp2080
bag2
(g3
(I0
tp2081
g5
tp2082
Rp2083
(I1
(I1
tp2084
g12
I00
S'\\\x0f\xdcaN8p@'
p2085
tp2086
bag2
(g3
(I0
tp2087
g5
tp2088
Rp2089
(I1
(I1
tp2090
g12
I00
S'\x1c\xf7\xe7\x16\xb6?p@'
p2091
tp2092
bag2
(g3
(I0
tp2093
g5
tp2094
Rp2095
(I1
(I1
tp2096
g12
I00
S'8v$\xfa\xcfFp@'
p2097
tp2098
bag2
(g3
(I0
tp2099
g5
tp2100
Rp2101
(I1
(I1
tp2102
g12
I00
S'\x81\xfc\x13\x9c\x9aMp@'
p2103
tp2104
bag2
(g3
(I0
tp2105
g5
tp2106
Rp2107
(I1
(I1
tp2108
g12
I00
S'G\xb0\xbe\x8c\x14Tp@'
p2109
tp2110
bag2
(g3
(I0
tp2111
g5
tp2112
Rp2113
(I1
(I1
tp2114
g12
I00
S'\xbc\x81\x08\\<Zp@'
p2115
tp2116
bag2
(g3
(I0
tp2117
g5
tp2118
Rp2119
(I1
(I1
tp2120
g12
I00
S'\x80%\x80\x98\x10`p@'
p2121
tp2122
bag2
(g3
(I0
tp2123
g5
tp2124
Rp2125
(I1
(I1
tp2126
g12
I00
S'\xb6\xe8\xeb\xd0\x8fep@'
p2127
tp2128
bag2
(g3
(I0
tp2129
g5
tp2130
Rp2131
(I1
(I1
tp2132
g12
I00
S'\x12*K\x94\xb8jp@'
p2133
tp2134
bag2
(g3
(I0
tp2135
g5
tp2136
Rp2137
(I1
(I1
tp2138
g12
I00
S'\xe7\x0e\x1er\x89op@'
p2139
tp2140
bag2
(g3
(I0
tp2141
g5
tp2142
Rp2143
(I1
(I1
tp2144
g12
I00
S'm\x11k\xfa\x00tp@'
p2145
tp2146
bag2
(g3
(I0
tp2147
g5
tp2148
Rp2149
(I1
(I1
tp2150
g12
I00
S'\xd3vc\xbe\x1dxp@'
p2151
tp2152
bag2
(g3
(I0
tp2153
g5
tp2154
Rp2155
(I1
(I1
tp2156
g12
I00
S'Bf\x19P\xde{p@'
p2157
tp2158
bag2
(g3
(I0
tp2159
g5
tp2160
Rp2161
(I1
(I1
tp2162
g12
I00
S'\xb6\x96FCA\x7fp@'
p2163
tp2164
bag2
(g3
(I0
tp2165
g5
tp2166
Rp2167
(I1
(I1
tp2168
g12
I00
S'\x0f\x19\xfb,E\x82p@'
p2169
tp2170
bag2
(g3
(I0
tp2171
g5
tp2172
Rp2173
(I1
(I1
tp2174
g12
I00
S'D\x05\x80\xa4\xe8\x84p@'
p2175
tp2176
bag2
(g3
(I0
tp2177
g5
tp2178
Rp2179
(I1
(I1
tp2180
g12
I00
S'u"\x04C*\x87p@'
p2181
tp2182
bag2
(g3
(I0
tp2183
g5
tp2184
Rp2185
(I1
(I1
tp2186
g12
I00
S'\xe5\x8a\x9d\xa3\x08\x89p@'
p2187
tp2188
bag2
(g3
(I0
tp2189
g5
tp2190
Rp2191
(I1
(I1
tp2192
g12
I00
S'\xef\xd5\x0bc\x82\x8ap@'
p2193
tp2194
bag2
(g3
(I0
tp2195
g5
tp2196
Rp2197
(I1
(I1
tp2198
g12
I00
S'\xcf\x13I \x96\x8bp@'
p2199
tp2200
bag2
(g3
(I0
tp2201
g5
tp2202
Rp2203
(I1
(I1
tp2204
g12
I00
S'\x1e\xc8^}B\x8cp@'
p2205
tp2206
bag2
(g3
(I0
tp2207
g5
tp2208
Rp2209
(I1
(I1
tp2210
g12
I00
S'\xd2\x88\xb9\x1e\x86\x8cp@'
p2211
tp2212
bag2
(g3
(I0
tp2213
g5
tp2214
Rp2215
(I1
(I1
tp2216
g12
I00
S'G\xf4\x96\xab_\x8cp@'
p2217
tp2218
bag2
(g3
(I0
tp2219
g5
tp2220
Rp2221
(I1
(I1
tp2222
g12
I00
S'L\xa9!\xce\xcd\x8bp@'
p2223
tp2224
bag2
(g3
(I0
tp2225
g5
tp2226
Rp2227
(I1
(I1
tp2228
g12
I00
S'\x82x\xd23\xcf\x8ap@'
p2229
tp2230
bag2
(g3
(I0
tp2231
g5
tp2232
Rp2233
(I1
(I1
tp2234
g12
I00
S'\xde\xce\r\x8eb\x89p@'
p2235
tp2236
bag2
(g3
(I0
tp2237
g5
tp2238
Rp2239
(I1
(I1
tp2240
g12
I00
S'\xe2d\xf5\x91\x86\x87p@'
p2241
tp2242
bag2
(g3
(I0
tp2243
g5
tp2244
Rp2245
(I1
(I1
tp2246
g12
I00
S'R\xf0\r\xf89\x85p@'
p2247
tp2248
bag2
(g3
(I0
tp2249
g5
tp2250
Rp2251
(I1
(I1
tp2252
g12
I00
S'(\xcd\xb6|{\x82p@'
p2253
tp2254
bag2
(g3
(I0
tp2255
g5
tp2256
Rp2257
(I1
(I1
tp2258
g12
I00
S'W\xb6\xf0\xe0I\x7fp@'
p2259
tp2260
bag2
(g3
(I0
tp2261
g5
tp2262
Rp2263
(I1
(I1
tp2264
g12
I00
S'\xb0\xd0,\xe9\xa3{p@'
p2265
tp2266
bag2
(g3
(I0
tp2267
g5
tp2268
Rp2269
(I1
(I1
tp2270
g12
I00
S'\xa6\xb3\xb4_\x88wp@'
p2271
tp2272
bag2
(g3
(I0
tp2273
g5
tp2274
Rp2275
(I1
(I1
tp2276
g12
I00
S'\xd9D\xc3\x12\xf6rp@'
p2277
tp2278
bag2
(g3
(I0
tp2279
g5
tp2280
Rp2281
(I1
(I1
tp2282
g12
I00
S'\xd8AQ\xd5\xebmp@'
p2283
tp2284
bag2
(g3
(I0
tp2285
g5
tp2286
Rp2287
(I1
(I1
tp2288
g12
I00
S'\xdb\xe9W~hhp@'
p2289
tp2290
bag2
(g3
(I0
tp2291
g5
tp2292
Rp2293
(I1
(I1
tp2294
g12
I00
S'5g\xed\xeajbp@'
p2295
tp2296
bag2
(g3
(I0
tp2297
g5
tp2298
Rp2299
(I1
(I1
tp2300
g12
I00
S'\x94\x81\xc1\xfc\xf1[p@'
p2301
tp2302
bag2
(g3
(I0
tp2303
g5
tp2304
Rp2305
(I1
(I1
tp2306
g12
I00
S'1]5\x9c\xfcTp@'
p2307
tp2308
bag2
(g3
(I0
tp2309
g5
tp2310
Rp2311
(I1
(I1
tp2312
g12
I00
S"<'\xd7\xb6\x89Mp@"
p2313
tp2314
bag2
(g3
(I0
tp2315
g5
tp2316
Rp2317
(I1
(I1
tp2318
g12
I00
S'\x95\xee\x87@\x98Ep@'
p2319
tp2320
bag2
(g3
(I0
tp2321
g5
tp2322
Rp2323
(I1
(I1
tp2324
g12
I00
S" t]3'=p@"
p2325
tp2326
bag2
(g3
(I0
tp2327
g5
tp2328
Rp2329
(I1
(I1
tp2330
g12
I00
S'_\x08\xd3\x8f54p@'
p2331
tp2332
bag2
(g3
(I0
tp2333
g5
tp2334
Rp2335
(I1
(I1
tp2336
g12
I00
S'\x0c8w\\\xc2*p@'
p2337
tp2338
bag2
(g3
(I0
tp2339
g5
tp2340
Rp2341
(I1
(I1
tp2342
g12
I00
S'\x95\xb8\x99\xa6\xcc p@'
p2343
tp2344
bag2
(g3
(I0
tp2345
g5
tp2346
Rp2347
(I1
(I1
tp2348
g12
I00
S'\x8e\x8e\xc8\x81S\x16p@'
p2349
tp2350
bag2
(g3
(I0
tp2351
g5
tp2352
Rp2353
(I1
(I1
tp2354
g12
I00
S'7\xa90\tV\x0bp@'
p2355
tp2356
bag2
(g3
(I0
tp2357
g5
tp2358
Rp2359
(I1
(I1
tp2360
g12
I00
S'K\xe4\xea\xbd\xa6\xffo@'
p2361
tp2362
bag2
(g3
(I0
tp2363
g5
tp2364
Rp2365
(I1
(I1
tp2366
g12
I00
S'cZzX\x95\xe7o@'
p2367
tp2368
bag2
(g3
(I0
tp2369
g5
tp2370
Rp2371
(I1
(I1
tp2372
g12
I00
S'X-dDv\xceo@'
p2373
tp2374
bag2
(g3
(I0
tp2375
g5
tp2376
Rp2377
(I1
(I1
tp2378
g12
I00
S'\x1e\x9c5\xf0G\xb4o@'
p2379
tp2380
bag2
(g3
(I0
tp2381
g5
tp2382
Rp2383
(I1
(I1
tp2384
g12
I00
S'9\x03\x9f\xd9\x08\x99o@'
p2385
tp2386
bag2
(g3
(I0
tp2387
g5
tp2388
Rp2389
(I1
(I1
tp2390
g12
I00
S':\xda\x04\x8e\xb7|o@'
p2391
tp2392
bag2
(g3
(I0
tp2393
g5
tp2394
Rp2395
(I1
(I1
tp2396
g12
I00
S'\xeb\xf7\xc1\xabR_o@'
p2397
tp2398
bag2
(g3
(I0
tp2399
g5
tp2400
Rp2401
(I1
(I1
tp2402
g12
I00
S'\x01\xdb\xae\xe1\xd8@o@'
p2403
tp2404
bag2
(g3
(I0
tp2405
g5
tp2406
Rp2407
(I1
(I1
tp2408
g12
I00
S'\tQ#\xf0H!o@'
p2409
tp2410
bag2
(g3
(I0
tp2411
g5
tp2412
Rp2413
(I1
(I1
tp2414
g12
I00
S'\x11U|\xa7\xa1\x00o@'
p2415
tp2416
bag2
(g3
(I0
tp2417
g5
tp2418
Rp2419
(I1
(I1
tp2420
g12
I00
S'\xcf\x1a@\xe9\xe1\xden@'
p2421
tp2422
bag2
(g3
(I0
tp2423
g5
tp2424
Rp2425
(I1
(I1
tp2426
g12
I00
S'\xc7F\x8f\xa8\x08\xbcn@'
p2427
tp2428
bag2
(g3
(I0
tp2429
g5
tp2430
Rp2431
(I1
(I1
tp2432
g12
I00
S'2\x9e\x9b\xe9\x14\x98n@'
p2433
tp2434
bag2
(g3
(I0
tp2435
g5
tp2436
Rp2437
(I1
(I1
tp2438
g12
I00
S'f\xcb\xe9\xc5\x05sn@'
p2439
tp2440
bag2
(g3
(I0
tp2441
g5
tp2442
Rp2443
(I1
(I1
tp2444
g12
I00
S']\x86\x1be\xdaLn@'
p2445
tp2446
bag2
(g3
(I0
tp2447
g5
tp2448
Rp2449
(I1
(I1
tp2450
g12
I00
S"\xe1\xff'\x04\x92%n@"
p2451
tp2452
bag2
(g3
(I0
tp2453
g5
tp2454
Rp2455
(I1
(I1
tp2456
g12
I00
S'\xdf\xd3J\xf2+\xfdm@'
p2457
tp2458
bag2
(g3
(I0
tp2459
g5
tp2460
Rp2461
(I1
(I1
tp2462
g12
I00
S'\xc2\xa1\xb4\x90\xa7\xd3m@'
p2463
tp2464
bag2
(g3
(I0
tp2465
g5
tp2466
Rp2467
(I1
(I1
tp2468
g12
I00
S'\xae\x98\xedW\x04\xa9m@'
p2469
tp2470
bag2
(g3
(I0
tp2471
g5
tp2472
Rp2473
(I1
(I1
tp2474
g12
I00
S'\x1be\x1d\xd2A}m@'
p2475
tp2476
bag2
(g3
(I0
tp2477
g5
tp2478
Rp2479
(I1
(I1
tp2480
g12
I00
S'\x93V\xed\x9d_Pm@'
p2481
tp2482
bag2
(g3
(I0
tp2483
g5
tp2484
Rp2485
(I1
(I1
tp2486
g12
I00
S'\x0f\xd4\xa0l]"m@'
p2487
tp2488
bag2
(g3
(I0
tp2489
g5
tp2490
Rp2491
(I1
(I1
tp2492
g12
I00
S'W\xe6\xf8\x07;\xf3l@'
p2493
tp2494
bag2
(g3
(I0
tp2495
g5
tp2496
Rp2497
(I1
(I1
tp2498
g12
I00
S'\xdea\xc8J\xf8\xc2l@'
p2499
tp2500
bag2
(g3
(I0
tp2501
g5
tp2502
Rp2503
(I1
(I1
tp2504
g12
I00
S'\xdf\x04\xd5%\x95\x91l@'
p2505
tp2506
bag2
(g3
(I0
tp2507
g5
tp2508
Rp2509
(I1
(I1
tp2510
g12
I00
S'\xaa\x03J\x9d\x11_l@'
p2511
tp2512
bag2
(g3
(I0
tp2513
g5
tp2514
Rp2515
(I1
(I1
tp2516
g12
I00
S'\xe7m,\xccm+l@'
p2517
tp2518
bag2
(g3
(I0
tp2519
g5
tp2520
Rp2521
(I1
(I1
tp2522
g12
I00
S'\xfeY?\xe3\xa9\xf6k@'
p2523
tp2524
bag2
(g3
(I0
tp2525
g5
tp2526
Rp2527
(I1
(I1
tp2528
g12
I00
S'\x98\x8e\x13(\xc6\xc0k@'
p2529
tp2530
bag2
(g3
(I0
tp2531
g5
tp2532
Rp2533
(I1
(I1
tp2534
g12
I00
S'\xab\xc3\xe5\xf5\xc2\x89k@'
p2535
tp2536
bag2
(g3
(I0
tp2537
g5
tp2538
Rp2539
(I1
(I1
tp2540
g12
I00
S"l' \xbe\xa0Qk@"
p2541
tp2542
bag2
(g3
(I0
tp2543
g5
tp2544
Rp2545
(I1
(I1
tp2546
g12
I00
S'\x12Y\x87\x06`\x18k@'
p2547
tp2548
bag2
(g3
(I0
tp2549
g5
tp2550
Rp2551
(I1
(I1
tp2552
g12
I00
S'\xb6\xe7\x01k\x01\xdej@'
p2553
tp2554
bag2
(g3
(I0
tp2555
g5
tp2556
Rp2557
(I1
(I1
tp2558
g12
I00
S'\x10\xcc\x1d\x9e\x85\xa2j@'
p2559
tp2560
bag2
(g3
(I0
tp2561
g5
tp2562
Rp2563
(I1
(I1
tp2564
g12
I00
S'\xc9\xb3Qh\xedej@'
p2565
tp2566
bag2
(g3
(I0
tp2567
g5
tp2568
Rp2569
(I1
(I1
tp2570
g12
I00
S' ny\xa89(j@'
p2571
tp2572
bag2
(g3
(I0
tp2573
g5
tp2574
Rp2575
(I1
(I1
tp2576
g12
I00
S':U\x93Uk\xe9i@'
p2577
tp2578
bag2
(g3
(I0
tp2579
g5
tp2580
Rp2581
(I1
(I1
tp2582
g12
I00
S'\x18\r\xa8|\x83\xa9i@'
p2583
tp2584
bag2
(g3
(I0
tp2585
g5
tp2586
Rp2587
(I1
(I1
tp2588
g12
I00
S'\xa3\xcc\xe4?\x83hi@'
p2589
tp2590
bag2
(g3
(I0
tp2591
g5
tp2592
Rp2593
(I1
(I1
tp2594
g12
I00
S'\x85\xbf$\xd8k&i@'
p2595
tp2596
bag2
(g3
(I0
tp2597
g5
tp2598
Rp2599
(I1
(I1
tp2600
g12
I00
S'\x97\xc2q\x94>\xe3h@'
p2601
tp2602
bag2
(g3
(I0
tp2603
g5
tp2604
Rp2605
(I1
(I1
tp2606
g12
I00
S'\xcf*\xb3\xdb\xfc\x9eh@'
p2607
tp2608
bag2
(g3
(I0
tp2609
g5
tp2610
Rp2611
(I1
(I1
tp2612
g12
I00
S'\xe8%).\xa8Yh@'
p2613
tp2614
bag2
(g3
(I0
tp2615
g5
tp2616
Rp2617
(I1
(I1
tp2618
g12
I00
S'\xae\x18\xf1\x1dB\x13h@'
p2619
tp2620
bag2
(g3
(I0
tp2621
g5
tp2622
Rp2623
(I1
(I1
tp2624
g12
I00
S'.\xcc\x9fR\xcc\xcbg@'
p2625
tp2626
bag2
(g3
(I0
tp2627
g5
tp2628
Rp2629
(I1
(I1
tp2630
g12
I00
S"'\xb45\x8bH\x83g@"
p2631
tp2632
bag2
(g3
(I0
tp2633
g5
tp2634
Rp2635
(I1
(I1
tp2636
g12
I00
S'\xf7\xaf\xcb\x9e\xb89g@'
p2637
tp2638
bag2
(g3
(I0
tp2639
g5
tp2640
Rp2641
(I1
(I1
tp2642
g12
I00
S'<\x08fw\x1e\xeff@'
p2643
tp2644
bag2
(g3
(I0
tp2645
g5
tp2646
Rp2647
(I1
(I1
tp2648
g12
I00
S"\x0f'\xc2\x17|\xa3f@"
p2649
tp2650
bag2
(g3
(I0
tp2651
g5
tp2652
Rp2653
(I1
(I1
tp2654
g12
I00
S'\x90\x10\xc4\x97\xd3Vf@'
p2655
tp2656
bag2
(g3
(I0
tp2657
g5
tp2658
Rp2659
(I1
(I1
tp2660
g12
I00
S"g\xef\x90$'\tf@"
p2661
tp2662
bag2
(g3
(I0
tp2663
g5
tp2664
Rp2665
(I1
(I1
tp2666
g12
I00
S'Rd\x16\x00y\xbae@'
p2667
tp2668
bag2
(g3
(I0
tp2669
g5
tp2670
Rp2671
(I1
(I1
tp2672
g12
I00
S'\xcb(\xd3}\xcbje@'
p2673
tp2674
bag2
(g3
(I0
tp2675
g5
tp2676
Rp2677
(I1
(I1
tp2678
g12
I00
S'\xee6b\x06!\x1ae@'
p2679
tp2680
bag2
(g3
(I0
tp2681
g5
tp2682
Rp2683
(I1
(I1
tp2684
g12
I00
S'U4\xc2\x15|\xc8d@'
p2685
tp2686
bag2
(g3
(I0
tp2687
g5
tp2688
Rp2689
(I1
(I1
tp2690
g12
I00
S'=\x1b\xf7<\xdfud@'
p2691
tp2692
bag2
(g3
(I0
tp2693
g5
tp2694
Rp2695
(I1
(I1
tp2696
g12
I00
S'\xc1\xad\x9f M"d@'
p2697
tp2698
bag2
(g3
(I0
tp2699
g5
tp2700
Rp2701
(I1
(I1
tp2702
g12
I00
S'x\t\x97u\xc8\xcdc@'
p2703
tp2704
bag2
(g3
(I0
tp2705
g5
tp2706
Rp2707
(I1
(I1
tp2708
g12
I00
S'\xd5\xe3\xf4\x04Txc@'
p2709
tp2710
bag2
(g3
(I0
tp2711
g5
tp2712
Rp2713
(I1
(I1
tp2714
g12
I00
S'8?\xbd\xab\xf2!c@'
p2715
tp2716
bag2
(g3
(I0
tp2717
g5
tp2718
Rp2719
(I1
(I1
tp2720
g12
I00
S'\xe0\xd7\xa3S\xa7\xcab@'
p2721
tp2722
bag2
(g3
(I0
tp2723
g5
tp2724
Rp2725
(I1
(I1
tp2726
g12
I00
S'\x85\x02\x97\xf8trb@'
p2727
tp2728
bag2
(g3
(I0
tp2729
g5
tp2730
Rp2731
(I1
(I1
tp2732
g12
I00
S'i\x95\xac\xa0^\x19b@'
p2733
tp2734
bag2
(g3
(I0
tp2735
g5
tp2736
Rp2737
(I1
(I1
tp2738
g12
I00
S'\xaa\xb6\xe3_g\xbfa@'
p2739
tp2740
bag2
(g3
(I0
tp2741
g5
tp2742
Rp2743
(I1
(I1
tp2744
g12
I00
S'\xcb\x00\xdbV\x92da@'
p2745
tp2746
bag2
(g3
(I0
tp2747
g5
tp2748
Rp2749
(I1
(I1
tp2750
g12
I00
S'\xa8\xc8\xd3\xaf\xe2\x08a@'
p2751
tp2752
bag2
(g3
(I0
tp2753
g5
tp2754
Rp2755
(I1
(I1
tp2756
g12
I00
S'\x89:+\x9d[\xac`@'
p2757
tp2758
bag2
(g3
(I0
tp2759
g5
tp2760
Rp2761
(I1
(I1
tp2762
g12
I00
S'\xb2\xc9\xceW\x00O`@'
p2763
tp2764
bag2
(g3
(I0
tp2765
g5
tp2766
Rp2767
(I1
(I1
tp2768
g12
I00
S'\x8bo\x19=\xa8\xe1_@'
p2769
tp2770
bag2
(g3
(I0
tp2771
g5
tp2772
Rp2773
(I1
(I1
tp2774
g12
I00
S'Y\x9a\x1dj\xb4#_@'
p2775
tp2776
bag2
(g3
(I0
tp2777
g5
tp2778
Rp2779
(I1
(I1
tp2780
g12
I00
S'F\xa4R\xbd+d^@'
p2781
tp2782
bag2
(g3
(I0
tp2783
g5
tp2784
Rp2785
(I1
(I1
tp2786
g12
I00
S'\xe93\xbb\xb8\x14\xa3]@'
p2787
tp2788
bag2
(g3
(I0
tp2789
g5
tp2790
Rp2791
(I1
(I1
tp2792
g12
I00
S'\xa8*7\xcfu\xe0\\@'
p2793
tp2794
bag2
(g3
(I0
tp2795
g5
tp2796
Rp2797
(I1
(I1
tp2798
g12
I00
S"\xef'ygU\x1c\\@"
p2799
tp2800
bag2
(g3
(I0
tp2801
g5
tp2802
Rp2803
(I1
(I1
tp2804
g12
I00
S'*\xa5\x99\xd1\xb9V[@'
p2805
tp2806
bag2
(g3
(I0
tp2807
g5
tp2808
Rp2809
(I1
(I1
tp2810
g12
I00
S'\x17\x12\x05:\xa9\x8fZ@'
p2811
tp2812
bag2
(g3
(I0
tp2813
g5
tp2814
Rp2815
(I1
(I1
tp2816
g12
I00
S'\x88\xb0\x0b\xa4)\xc7Y@'
p2817
tp2818
bag2
(g3
(I0
tp2819
g5
tp2820
Rp2821
(I1
(I1
tp2822
g12
I00
S'\x89j\x03\xe4@\xfdX@'
p2823
tp2824
bag2
(g3
(I0
tp2825
g5
tp2826
Rp2827
(I1
(I1
tp2828
g12
I00
S'\x1b|\xff\x8e\xf41X@'
p2829
tp2830
bag2
(g3
(I0
tp2831
g5
tp2832
Rp2833
(I1
(I1
tp2834
g12
I00
S'w}W\xeeIeW@'
p2835
tp2836
bag2
(g3
(I0
tp2837
g5
tp2838
Rp2839
(I1
(I1
tp2840
g12
I00
S'\x96\x8a0\xf5E\x97V@'
p2841
tp2842
bag2
(g3
(I0
tp2843
g5
tp2844
Rp2845
(I1
(I1
tp2846
g12
I00
S'\xd3\xcc\x8f.\xed\xc7U@'
p2847
tp2848
bag2
(g3
(I0
tp2849
g5
tp2850
Rp2851
(I1
(I1
tp2852
g12
I00
S'\r\x9br\xafC\xf7T@'
p2853
tp2854
bag2
(g3
(I0
tp2855
g5
tp2856
Rp2857
(I1
(I1
tp2858
g12
I00
S'8>\xe0\xfeL%T@'
p2859
tp2860
bag2
(g3
(I0
tp2861
g5
tp2862
Rp2863
(I1
(I1
tp2864
g12
I00
S'\x18\x1dh\x06\x0cRS@'
p2865
tp2866
bag2
(g3
(I0
tp2867
g5
tp2868
Rp2869
(I1
(I1
tp2870
g12
I00
S'\xf6i`\xf7\x82}R@'
p2871
tp2872
bag2
(g3
(I0
tp2873
g5
tp2874
Rp2875
(I1
(I1
tp2876
g12
I00
S'\xa0G\xdf7\xb3\xa7Q@'
p2877
tp2878
bag2
(g3
(I0
tp2879
g5
tp2880
Rp2881
(I1
(I1
tp2882
g12
I00
S'\r\xbf\x9aC\x9d\xd0P@'
p2883
tp2884
bag2
(g3
(I0
tp2885
g5
tp2886
Rp2887
(I1
(I1
tp2888
g12
I00
S'\x06b<\x1d\x81\xf0O@'
p2889
tp2890
bag2
(g3
(I0
tp2891
g5
tp2892
Rp2893
(I1
(I1
tp2894
g12
I00
S'\xde\x1ed\xbf6=N@'
p2895
tp2896
bag2
(g3
(I0
tp2897
g5
tp2898
Rp2899
(I1
(I1
tp2900
g12
I00
S'\xd1\xfc\xaaaU\x87L@'
p2901
tp2902
bag2
(g3
(I0
tp2903
g5
tp2904
Rp2905
(I1
(I1
tp2906
g12
I00
S'\xf3\xa6\xb1\x1b\xd4\xceJ@'
p2907
tp2908
bag2
(g3
(I0
tp2909
g5
tp2910
Rp2911
(I1
(I1
tp2912
g12
I00
S'\xb2}\xcc\xd4\xa6\x13I@'
p2913
tp2914
bag2
(g3
(I0
tp2915
g5
tp2916
Rp2917
(I1
(I1
tp2918
g12
I00
S'\x0c]\xb5\xfe\xbdUG@'
p2919
tp2920
bag2
(g3
(I0
tp2921
g5
tp2922
Rp2923
(I1
(I1
tp2924
g12
I00
S'A\xfc1F\x06\x95E@'
p2925
tp2926
bag2
(g3
(I0
tp2927
g5
tp2928
Rp2929
(I1
(I1
tp2930
g12
I00
S'\x10<\xb2Zh\xd1C@'
p2931
tp2932
bag2
(g3
(I0
tp2933
g5
tp2934
Rp2935
(I1
(I1
tp2936
g12
I00
S'\xba\x9e=\x83\xc8\nB@'
p2937
tp2938
bag2
(g3
(I0
tp2939
g5
tp2940
Rp2941
(I1
(I1
tp2942
g12
I00
S'\x95\xa1\xba\xb0\xf9@@@'
p2943
tp2944
bag2
(g3
(I0
tp2945
g5
tp2946
Rp2947
(I1
(I1
tp2948
g12
I00
S'\xfc\xbd\x93\xbd\x8a\xe7<@'
p2949
tp2950
bag2
(g3
(I0
tp2951
g5
tp2952
Rp2953
(I1
(I1
tp2954
g12
I00
S'\x85!\x7f\x8c\xe9E9@'
p2955
tp2956
bag2
(g3
(I0
tp2957
g5
tp2958
Rp2959
(I1
(I1
tp2960
g12
I00
S'\xf3\xe1\xb4\xab\xa1\x9c5@'
p2961
tp2962
bag2
(g3
(I0
tp2963
g5
tp2964
Rp2965
(I1
(I1
tp2966
g12
I00
S'eu\x01VD\xeb1@'
p2967
tp2968
bag2
(g3
(I0
tp2969
g5
tp2970
Rp2971
(I1
(I1
tp2972
g12
I00
S'\x01T\x08*\xc4b,@'
p2973
tp2974
bag2
(g3
(I0
tp2975
g5
tp2976
Rp2977
(I1
(I1
tp2978
g12
I00
S'o\xd0te\x15\xdd$@'
p2979
tp2980
bag2
(g3
(I0
tp2981
g5
tp2982
Rp2983
(I1
(I1
tp2984
g12
I00
S'\x07\x0c@\xac4\x89\x1a@'
p2985
tp2986
bag2
(g3
(I0
tp2987
g5
tp2988
Rp2989
(I1
(I1
tp2990
g12
I00
S'>\xf3\x91\xeb\xbca\x06@'
p2991
tp2992
bag2
(g3
(I0
tp2993
g5
tp2994
Rp2995
(I1
(I1
tp2996
g12
I00
S'\x01\xeb\xcb\x19\x8cB\xf1\xbf'
p2997
tp2998
bag2
(g3
(I0
tp2999
g5
tp3000
Rp3001
(I1
(I1
tp3002
g12
I00
S'\x10_\xd1\xdb\x1e\xfd\x13\xc0'
p3003
tp3004
bag2
(g3
(I0
tp3005
g5
tp3006
Rp3007
(I1
(I1
tp3008
g12
I00
S'\xd0\np\x1e4\xeb!\xc0'
p3009
tp3010
bag2
(g3
(I0
tp3011
g5
tp3012
Rp3013
(I1
(I1
tp3014
g12
I00
S'_n\xa0Z+\xef)\xc0'
p3015
tp3016
bag2
(g3
(I0
tp3017
g5
tp3018
Rp3019
(I1
(I1
tp3020
g12
I00
S'\x0c\xc2\xeb\x98\xb1\x051\xc0'
p3021
tp3022
bag2
(g3
(I0
tp3023
g5
tp3024
Rp3025
(I1
(I1
tp3026
g12
I00
S'x\x06\x0c\rf 5\xc0'
p3027
tp3028
bag2
(g3
(I0
tp3029
g5
tp3030
Rp3031
(I1
(I1
tp3032
g12
I00
S'\xac\xfa\x9d\x86,H9\xc0'
p3033
tp3034
bag2
(g3
(I0
tp3035
g5
tp3036
Rp3037
(I1
(I1
tp3038
g12
I00
S'\xaa7"\xd3\x7f}=\xc0'
p3039
tp3040
bag2
(g3
(I0
tp3041
g5
tp3042
Rp3043
(I1
(I1
tp3044
g12
I00
S'\x02 \xb3\x0fn\xe0@\xc0'
p3045
tp3046
bag2
(g3
(I0
tp3047
g5
tp3048
Rp3049
(I1
(I1
tp3050
g12
I00
S'ew(\x83_\tC\xc0'
p3051
tp3052
bag2
(g3
(I0
tp3053
g5
tp3054
Rp3055
(I1
(I1
tp3056
g12
I00
S'\x00/\xe2\xcf\xd39E\xc0'
p3057
tp3058
bag2
(g3
(I0
tp3059
g5
tp3060
Rp3061
(I1
(I1
tp3062
g12
I00
S'\xc2\x98\xcbG\x0brG\xc0'
p3063
tp3064
baa.(lp0
(lp1
cnumpy.core.multiarray
_reconstruct
p2
(cnumpy
ndarray
p3
(I0
tp4
S'b'
p5
tp6
Rp7
(I1
(I1
tp8
cnumpy
dtype
p9
(S'f8'
p10
I0
I1
tp11
Rp12
(I3
S'<'
p13
NNNI-1
I-1
I0
tp14
bI00
S'x%\xdd\x9e\x10\x90I@'
p15
tp16
bag2
(g3
(I0
tp17
g5
tp18
Rp19
(I1
(I1
tp20
g12
I00
S'\xd4\x07dK\xe9\x9cI@'
p21
tp22
bag2
(g3
(I0
tp23
g5
tp24
Rp25
(I1
(I1
tp26
g12
I00
S'\xcdvq\xe7\x00\xaaI@'
p27
tp28
bag2
(g3
(I0
tp29
g5
tp30
Rp31
(I1
(I1
tp32
g12
I00
S'\x88\xa4d\xd6W\xb7I@'
p33
tp34
bag2
(g3
(I0
tp35
g5
tp36
Rp37
(I1
(I1
tp38
g12
I00
S'S\x7f\\|\xee\xc4I@'
p39
tp40
bag2
(g3
(I0
tp41
g5
tp42
Rp43
(I1
(I1
tp44
g12
I00
S'\xe6\x95\xe8>\xc5\xd2I@'
p45
tp46
bag2
(g3
(I0
tp47
g5
tp48
Rp49
(I1
(I1
tp50
g12
I00
S'q\xb9\\\x84\xdc\xe0I@'
p51
tp52
bag2
(g3
(I0
tp53
g5
tp54
Rp55
(I1
(I1
tp56
g12
I00
S'\xfd\x8c\xb4\xb34\xefI@'
p57
tp58
bag2
(g3
(I0
tp59
g5
tp60
Rp61
(I1
(I1
tp62
g12
I00
S':\xe9\x1b5\xce\xfdI@'
p63
tp64
bag2
(g3
(I0
tp65
g5
tp66
Rp67
(I1
(I1
tp68
g12
I00
S'S\x84\xecq\xa9\x0cJ@'
p69
tp70
bag2
(g3
(I0
tp71
g5
tp72
Rp73
(I1
(I1
tp74
g12
I00
S'\x9f\xb1\x85\xd4\xc6\x1bJ@'
p75
tp76
bag2
(g3
(I0
tp77
g5
tp78
Rp79
(I1
(I1
tp80
g12
I00
S'{g?\xc8&+J@'
p81
tp82
bag2
(g3
(I0
tp83
g5
tp84
Rp85
(I1
(I1
tp86
g12
I00
S'\x17+/\xb9\xc9:J@'
p87
tp88
bag2
(g3
(I0
tp89
g5
tp90
Rp91
(I1
(I1
tp92
g12
I00
S'\xbc\x91\x9e\x14\xb0JJ@'
p93
tp94
bag2
(g3
(I0
tp95
g5
tp96
Rp97
(I1
(I1
tp98
g12
I00
S' G\xceH\xdaZJ@'
p99
tp100
bag2
(g3
(I0
tp101
g5
tp102
Rp103
(I1
(I1
tp104
g12
I00
S'\nM\xe5\xc4HkJ@'
p105
tp106
bag2
(g3
(I0
tp107
g5
tp108
Rp109
(I1
(I1
tp110
g12
I00
S'^J\xda\xf8\xfb{J@'
p111
tp112
bag2
(g3
(I0
tp113
g5
tp114
Rp115
(I1
(I1
tp116
g12
I00
S'\t\x9e\x19V\xf4\x8cJ@'
p117
tp118
bag2
(g3
(I0
tp119
g5
tp120
Rp121
(I1
(I1
tp122
g12
I00
S'\xb4\x94\xf3N2\x9eJ@'
p123
tp124
bag2
(g3
(I0
tp125
g5
tp126
Rp127
(I1
(I1
tp128
g12
I00
S'^<\xacV\xb6\xafJ@'
p129
tp130
bag2
(g3
(I0
tp131
g5
tp132
Rp133
(I1
(I1
tp134
g12
I00
S'W^\xa4\xe1\x80\xc1J@'
p135
tp136
bag2
(g3
(I0
tp137
g5
tp138
Rp139
(I1
(I1
tp140
g12
I00
S'4Z\xd9d\x92\xd3J@'
p141
tp142
bag2
(g3
(I0
tp143
g5
tp144
Rp145
(I1
(I1
tp146
g12
I00
S'7@\x97W\xeb\xe5J@'
p147
tp148
bag2
(g3
(I0
tp149
g5
tp150
Rp151
(I1
(I1
tp152
g12
I00
S'_Ex1\x8c\xf8J@'
p153
tp154
bag2
(g3
(I0
tp155
g5
tp156
Rp157
(I1
(I1
tp158
g12
I00
S'\x9c:rku\x0bK@'
p159
tp160
bag2
(g3
(I0
tp161
g5
tp162
Rp163
(I1
(I1
tp164
g12
I00
S'4\xef\x1a\x7f\xa7\x1eK@'
p165
tp166
bag2
(g3
(I0
tp167
g5
tp168
Rp169
(I1
(I1
tp170
g12
I00
S'\xacz$\xe7"2K@'
p171
tp172
bag2
(g3
(I0
tp173
g5
tp174
Rp175
(I1
(I1
tp176
g12
I00
S'\xc9\xe0e\x1f\xe8EK@'
p177
tp178
bag2
(g3
(I0
tp179
g5
tp180
Rp181
(I1
(I1
tp182
g12
I00
S's)\x17\xa6\xf7YK@'
p183
tp184
bag2
(g3
(I0
tp185
g5
tp186
Rp187
(I1
(I1
tp188
g12
I00
S'\x05\xbd3\xf9QnK@'
p189
tp190
bag2
(g3
(I0
tp191
g5
tp192
Rp193
(I1
(I1
tp194
g12
I00
S'u\xe3\x95\x97\xf7\x82K@'
p195
tp196
bag2
(g3
(I0
tp197
g5
tp198
Rp199
(I1
(I1
tp200
g12
I00
S'\x0b\xb7\x03\x01\xe9\x97K@'
p201
tp202
bag2
(g3
(I0
tp203
g5
tp204
Rp205
(I1
(I1
tp206
g12
I00
S'\xbe\xe6\xc8\xb6&\xadK@'
p207
tp208
bag2
(g3
(I0
tp209
g5
tp210
Rp211
(I1
(I1
tp212
g12
I00
S'\x08\xb5\xff<\xb1\xc2K@'
p213
tp214
bag2
(g3
(I0
tp215
g5
tp216
Rp217
(I1
(I1
tp218
g12
I00
S'\x00\x8dR\x17\x89\xd8K@'
p219
tp220
bag2
(g3
(I0
tp221
g5
tp222
Rp223
(I1
(I1
tp224
g12
I00
S'\xe0\x8dV\xca\xae\xeeK@'
p225
tp226
bag2
(g3
(I0
tp227
g5
tp228
Rp229
(I1
(I1
tp230
g12
I00
S'\xe5!\xec\xdb"\x05L@'
p231
tp232
bag2
(g3
(I0
tp233
g5
tp234
Rp235
(I1
(I1
tp236
g12
I00
S']\x9b$\xd5\xe5\x1bL@'
p237
tp238
bag2
(g3
(I0
tp239
g5
tp240
Rp241
(I1
(I1
tp242
g12
I00
S'c\xd3\x7f>\xf82L@'
p243
tp244
bag2
(g3
(I0
tp245
g5
tp246
Rp247
(I1
(I1
tp248
g12
I00
S'\xb3\x8cg\xa1ZJL@'
p249
tp250
bag2
(g3
(I0
tp251
g5
tp252
Rp253
(I1
(I1
tp254
g12
I00
S'\x81\x10\xaa\x88\rbL@'
p255
tp256
bag2
(g3
(I0
tp257
g5
tp258
Rp259
(I1
(I1
tp260
g12
I00
S'[mT\x82\x11zL@'
p261
tp262
bag2
(g3
(I0
tp263
g5
tp264
Rp265
(I1
(I1
tp266
g12
I00
S'n\xec\x90\x1ag\x92L@'
p267
tp268
bag2
(g3
(I0
tp269
g5
tp270
Rp271
(I1
(I1
tp272
g12
I00
S'RD\xe1\xde\x0e\xabL@'
p273
tp274
bag2
(g3
(I0
tp275
g5
tp276
Rp277
(I1
(I1
tp278
g12
I00
S'\xd7\x06\x99`\t\xc4L@'
p279
tp280
bag2
(g3
(I0
tp281
g5
tp282
Rp283
(I1
(I1
tp284
g12
I00
S'g\xb2\x060W\xddL@'
p285
tp286
bag2
(g3
(I0
tp287
g5
tp288
Rp289
(I1
(I1
tp290
g12
I00
S'\x1b\x04\xd5\xdd\xf8\xf6L@'
p291
tp292
bag2
(g3
(I0
tp293
g5
tp294
Rp295
(I1
(I1
tp296
g12
I00
S'-O\x00\xff\xee\x10M@'
p297
tp298
bag2
(g3
(I0
tp299
g5
tp300
Rp301
(I1
(I1
tp302
g12
I00
S"w~\xf5':+M@"
p303
tp304
bag2
(g3
(I0
tp305
g5
tp306
Rp307
(I1
(I1
tp308
g12
I00
S'ie\xc2\xec\xdaEM@'
p309
tp310
bag2
(g3
(I0
tp311
g5
tp312
Rp313
(I1
(I1
tp314
g12
I00
S' c\x14\xe6\xd1`M@'
p315
tp316
bag2
(g3
(I0
tp317
g5
tp318
Rp319
(I1
(I1
tp320
g12
I00
S'r\xbd\x9a\xab\x1f|M@'
p321
tp322
bag2
(g3
(I0
tp323
g5
tp324
Rp325
(I1
(I1
tp326
g12
I00
S'\x9f\x176\xd6\xc4\x97M@'
p327
tp328
bag2
(g3
(I0
tp329
g5
tp330
Rp331
(I1
(I1
tp332
g12
I00
S'\xc9\xb0\xdc\x02\xc2\xb3M@'
p333
tp334
bag2
(g3
(I0
tp335
g5
tp336
Rp337
(I1
(I1
tp338
g12
I00
S'\xebf3\xcc\x17\xd0M@'
p339
tp340
bag2
(g3
(I0
tp341
g5
tp342
Rp343
(I1
(I1
tp344
g12
I00
S'\xb8\xca~\xcf\xc6\xecM@'
p345
tp346
bag2
(g3
(I0
tp347
g5
tp348
Rp349
(I1
(I1
tp350
g12
I00
S'\x9dF\x93\xab\xcf\tN@'
p351
tp352
bag2
(g3
(I0
tp353
g5
tp354
Rp355
(I1
(I1
tp356
g12
I00
S"\x01\xb6@\xfe2'N@"
p357
tp358
bag2
(g3
(I0
tp359
g5
tp360
Rp361
(I1
(I1
tp362
g12
I00
S'\xa8\xbf\xc2j\xf1DN@'
p363
tp364
bag2
(g3
(I0
tp365
g5
tp366
Rp367
(I1
(I1
tp368
g12
I00
S'V\x1a0\x92\x0bcN@'
p369
tp370
bag2
(g3
(I0
tp371
g5
tp372
Rp373
(I1
(I1
tp374
g12
I00
S'0\xe2\xb2\x18\x82\x81N@'
p375
tp376
bag2
(g3
(I0
tp377
g5
tp378
Rp379
(I1
(I1
tp380
g12
I00
S'\r2h\xa3U\xa0N@'
p381
tp382
bag2
(g3
(I0
tp383
g5
tp384
Rp385
(I1
(I1
tp386
g12
I00
S'\xf4\xbd\x82\xd7\x86\xbfN@'
p387
tp388
bag2
(g3
(I0
tp389
g5
tp390
Rp391
(I1
(I1
tp392
g12
I00
S'\xcb\xfdq^\x16\xdfN@'
p393
tp394
bag2
(g3
(I0
tp395
g5
tp396
Rp397
(I1
(I1
tp398
g12
I00
S'\xc1\xf7\xb5\xde\x04\xffN@'
p399
tp400
bag2
(g3
(I0
tp401
g5
tp402
Rp403
(I1
(I1
tp404
g12
I00
S'\x19\x19\xfd\x03S\x1fO@'
p405
tp406
bag2
(g3
(I0
tp407
g5
tp408
Rp409
(I1
(I1
tp410
g12
I00
S'\xcb\x1a$x\x01@O@'
p411
tp412
bag2
(g3
(I0
tp413
g5
tp414
Rp415
(I1
(I1
tp416
g12
I00
S'\xb0\xa3\x96\xe8\x10aO@'
p417
tp418
bag2
(g3
(I0
tp419
g5
tp420
Rp421
(I1
(I1
tp422
g12
I00
S'c\x8ew\x02\x82\x82O@'
p423
tp424
bag2
(g3
(I0
tp425
g5
tp426
Rp427
(I1
(I1
tp428
g12
I00
S'\xf8\xcb~tU\xa4O@'
p429
tp430
bag2
(g3
(I0
tp431
g5
tp432
Rp433
(I1
(I1
tp434
g12
I00
S'\x9d\x94\x91\xef\x8b\xc6O@'
p435
tp436
bag2
(g3
(I0
tp437
g5
tp438
Rp439
(I1
(I1
tp440
g12
I00
S'\xc8\xb5\xe0#&\xe9O@'
p441
tp442
bag2
(g3
(I0
tp443
g5
tp444
Rp445
(I1
(I1
tp446
g12
I00
S'w?\x98b\x12\x06P@'
p447
tp448
bag2
(g3
(I0
tp449
g5
tp450
Rp451
(I1
(I1
tp452
g12
I00
S'O\xa4\xacB\xc4\x17P@'
p453
tp454
bag2
(g3
(I0
tp455
g5
tp456
Rp457
(I1
(I1
tp458
g12
I00
S'\x8a\xe4\xef\r\xa9)P@'
p459
tp460
bag2
(g3
(I0
tp461
g5
tp462
Rp463
(I1
(I1
tp464
g12
I00
S'n\x89\x8b\x1e\xc1;P@'
p465
tp466
bag2
(g3
(I0
tp467
g5
tp468
Rp469
(I1
(I1
tp470
g12
I00
S'\xf4\x96\xc0\xd1\x0cNP@'
p471
tp472
bag2
(g3
(I0
tp473
g5
tp474
Rp475
(I1
(I1
tp476
g12
I00
S'\xeb\xa2\xa9\x82\x8c`P@'
p477
tp478
bag2
(g3
(I0
tp479
g5
tp480
Rp481
(I1
(I1
tp482
g12
I00
S'\to\xad\x8f@sP@'
p483
tp484
bag2
(g3
(I0
tp485
g5
tp486
Rp487
(I1
(I1
tp488
g12
I00
S'*4WU)\x86P@'
p489
tp490
bag2
(g3
(I0
tp491
g5
tp492
Rp493
(I1
(I1
tp494
g12
I00
S'p\x04\x8a3G\x99P@'
p495
tp496
bag2
(g3
(I0
tp497
g5
tp498
Rp499
(I1
(I1
tp500
g12
I00
S'\xff\x94\x0b\x88\x9a\xacP@'
p501
tp502
bag2
(g3
(I0
tp503
g5
tp504
Rp505
(I1
(I1
tp506
g12
I00
S'=A\xac\xb3#\xc0P@'
p507
tp508
bag2
(g3
(I0
tp509
g5
tp510
Rp511
(I1
(I1
tp512
g12
I00
S'\xd9`\xa9\x15\xe3\xd3P@'
p513
tp514
bag2
(g3
(I0
tp515
g5
tp516
Rp517
(I1
(I1
tp518
g12
I00
S'\x18[4\x10\xd9\xe7P@'
p519
tp520
bag2
(g3
(I0
tp521
g5
tp522
Rp523
(I1
(I1
tp524
g12
I00
S'W\x9f\xdb\x03\x06\xfcP@'
p525
tp526
bag2
(g3
(I0
tp527
g5
tp528
Rp529
(I1
(I1
tp530
g12
I00
S'\xe1\x05\x1cTj\x10Q@'
p531
tp532
bag2
(g3
(I0
tp533
g5
tp534
Rp535
(I1
(I1
tp536
g12
I00
S'I\xb3\xbeb\x06%Q@'
p537
tp538
bag2
(g3
(I0
tp539
g5
tp540
Rp541
(I1
(I1
tp542
g12
I00
S'\x15eo\x94\xda9Q@'
p543
tp544
bag2
(g3
(I0
tp545
g5
tp546
Rp547
(I1
(I1
tp548
g12
I00
S'\x04\xc4\xfcK\xe7NQ@'
p549
tp550
bag2
(g3
(I0
tp551
g5
tp552
Rp553
(I1
(I1
tp554
g12
I00
S'w~N\xef,dQ@'
p555
tp556
bag2
(g3
(I0
tp557
g5
tp558
Rp559
(I1
(I1
tp560
g12
I00
S'\xdas\x81\xe2\xabyQ@'
p561
tp562
bag2
(g3
(I0
tp563
g5
tp564
Rp565
(I1
(I1
tp566
g12
I00
S'A\xe2\x19\x8dd\x8fQ@'
p567
tp568
bag2
(g3
(I0
tp569
g5
tp570
Rp571
(I1
(I1
tp572
g12
I00
S'\xd6\xcf&TW\xa5Q@'
p573
tp574
bag2
(g3
(I0
tp575
g5
tp576
Rp577
(I1
(I1
tp578
g12
I00
S'\x8b\x94\x11\xa0\x84\xbbQ@'
p579
tp580
bag2
(g3
(I0
tp581
g5
tp582
Rp583
(I1
(I1
tp584
g12
I00
S'\xaf\x93\xe7\xd6\xec\xd1Q@'
p585
tp586
bag2
(g3
(I0
tp587
g5
tp588
Rp589
(I1
(I1
tp590
g12
I00
S'\x8ej{b\x90\xe8Q@'
p591
tp592
bag2
(g3
(I0
tp593
g5
tp594
Rp595
(I1
(I1
tp596
g12
I00
S'\x08\xe3K\xaao\xffQ@'
p597
tp598
bag2
(g3
(I0
tp599
g5
tp600
Rp601
(I1
(I1
tp602
g12
I00
S'5\xe7\xf4\x18\x8b\x16R@'
p603
tp604
bag2
(g3
(I0
tp605
g5
tp606
Rp607
(I1
(I1
tp608
g12
I00
S'C\x00\xc1\x16\xe3-R@'
p609
tp610
bag2
(g3
(I0
tp611
g5
tp612
Rp613
(I1
(I1
tp614
g12
I00
S'\n\x8d\x10\x0fxER@'
p615
tp616
bag2
(g3
(I0
tp617
g5
tp618
Rp619
(I1
(I1
tp620
g12
I00
S'\xba\xd6\x8ckJ]R@'
p621
tp622
bag2
(g3
(I0
tp623
g5
tp624
Rp625
(I1
(I1
tp626
g12
I00
S'\x16\xfb\xf3\x98ZuR@'
p627
tp628
bag2
(g3
(I0
tp629
g5
tp630
Rp631
(I1
(I1
tp632
g12
I00
S'\xcd\xec\xda\x01\xa9\x8dR@'
p633
tp634
bag2
(g3
(I0
tp635
g5
tp636
Rp637
(I1
(I1
tp638
g12
I00
S'\x0c\xd8\x95\x146\xa6R@'
p639
tp640
bag2
(g3
(I0
tp641
g5
tp642
Rp643
(I1
(I1
tp644
g12
I00
S'\xb3\xd7\xfc<\x02\xbfR@'
p645
tp646
bag2
(g3
(I0
tp647
g5
tp648
Rp649
(I1
(I1
tp650
g12
I00
S'\xb4gw\xe9\r\xd8R@'
p651
tp652
bag2
(g3
(I0
tp653
g5
tp654
Rp655
(I1
(I1
tp656
g12
I00
S'\xfd@\xa1\x86Y\xf1R@'
p657
tp658
bag2
(g3
(I0
tp659
g5
tp660
Rp661
(I1
(I1
tp662
g12
I00
S'\x8f\xcf\x12\x84\xe5\nS@'
p663
tp664
bag2
(g3
(I0
tp665
g5
tp666
Rp667
(I1
(I1
tp668
g12
I00
S'\xe2\xdabO\xb2$S@'
p669
tp670
bag2
(g3
(I0
tp671
g5
tp672
Rp673
(I1
(I1
tp674
g12
I00
S'\xeb\x87YX\xc0>S@'
p675
tp676
bag2
(g3
(I0
tp677
g5
tp678
Rp679
(I1
(I1
tp680
g12
I00
S'\xeak\xbc\r\x10YS@'
p681
tp682
bag2
(g3
(I0
tp683
g5
tp684
Rp685
(I1
(I1
tp686
g12
I00
S'c_\x1c\xe0\xa1sS@'
p687
tp688
bag2
(g3
(I0
tp689
g5
tp690
Rp691
(I1
(I1
tp692
g12
I00
S'\xe9\xac\x03@v\x8eS@'
p693
tp694
bag2
(g3
(I0
tp695
g5
tp696
Rp697
(I1
(I1
tp698
g12
I00
S'\xcdr{\x9e\x8d\xa9S@'
p699
tp700
bag2
(g3
(I0
tp701
g5
tp702
Rp703
(I1
(I1
tp704
g12
I00
S'X\x07\xb8l\xe8\xc4S@'
p705
tp706
bag2
(g3
(I0
tp707
g5
tp708
Rp709
(I1
(I1
tp710
g12
I00
S'\x01u\\\x1b\x87\xe0S@'
p711
tp712
bag2
(g3
(I0
tp713
g5
tp714
Rp715
(I1
(I1
tp716
g12
I00
S'M\xaeo\x1dj\xfcS@'
p717
tp718
bag2
(g3
(I0
tp719
g5
tp720
Rp721
(I1
(I1
tp722
g12
I00
S'8)d\xe4\x91\x18T@'
p723
tp724
bag2
(g3
(I0
tp725
g5
tp726
Rp727
(I1
(I1
tp728
g12
I00
S'\x05\xa0\x00\xe4\xfe4T@'
p729
tp730
bag2
(g3
(I0
tp731
g5
tp732
Rp733
(I1
(I1
tp734
g12
I00
S'%j\xac\x8e\xb1QT@'
p735
tp736
bag2
(g3
(I0
tp737
g5
tp738
Rp739
(I1
(I1
tp740
g12
I00
S'A\xafCW\xaanT@'
p741
tp742
bag2
(g3
(I0
tp743
g5
tp744
Rp745
(I1
(I1
tp746
g12
I00
S'I\x8d\n\xb2\xe9\x8bT@'
p747
tp748
bag2
(g3
(I0
tp749
g5
tp750
Rp751
(I1
(I1
tp752
g12
I00
S'X\xe8\xdb\x11p\xa9T@'
p753
tp754
bag2
(g3
(I0
tp755
g5
tp756
Rp757
(I1
(I1
tp758
g12
I00
S'\x9b|~\xeb=\xc7T@'
p759
tp760
bag2
(g3
(I0
tp761
g5
tp762
Rp763
(I1
(I1
tp764
g12
I00
S'kL`\xb2S\xe5T@'
p765
tp766
bag2
(g3
(I0
tp767
g5
tp768
Rp769
(I1
(I1
tp770
g12
I00
S'T\xb4\xa0\xd9\xb1\x03U@'
p771
tp772
bag2
(g3
(I0
tp773
g5
tp774
Rp775
(I1
(I1
tp776
g12
I00
S'e\xc3\x16\xd7X"U@'
p777
tp778
bag2
(g3
(I0
tp779
g5
tp780
Rp781
(I1
(I1
tp782
g12
I00
S'J\xa9\xa2\x1eIAU@'
p783
tp784
bag2
(g3
(I0
tp785
g5
tp786
Rp787
(I1
(I1
tp788
g12
I00
S'\xcdF\xab$\x83`U@'
p789
tp790
bag2
(g3
(I0
tp791
g5
tp792
Rp793
(I1
(I1
tp794
g12
I00
S'\x9b\xb16_\x07\x80U@'
p795
tp796
bag2
(g3
(I0
tp797
g5
tp798
Rp799
(I1
(I1
tp800
g12
I00
S'\xf3\x1c\x93B\xd6\x9fU@'
p801
tp802
bag2
(g3
(I0
tp803
g5
tp804
Rp805
(I1
(I1
tp806
g12
I00
S'\xd8*:C\xf0\xbfU@'
p807
tp808
bag2
(g3
(I0
tp809
g5
tp810
Rp811
(I1
(I1
tp812
g12
I00
S'\xcf\x0c\x10\xd7U\xe0U@'
p813
tp814
bag2
(g3
(I0
tp815
g5
tp816
Rp817
(I1
(I1
tp818
g12
I00
S'\x83j+r\x07\x01V@'
p819
tp820
bag2
(g3
(I0
tp821
g5
tp822
Rp823
(I1
(I1
tp824
g12
I00
S'(m\xf4\x88\x05"V@'
p825
tp826
bag2
(g3
(I0
tp827
g5
tp828
Rp829
(I1
(I1
tp830
g12
I00
S',\x98G\x90PCV@'
p831
tp832
bag2
(g3
(I0
tp833
g5
tp834
Rp835
(I1
(I1
tp836
g12
I00
S'\xefN{\xfd\xe8dV@'
p837
tp838
bag2
(g3
(I0
tp839
g5
tp840
Rp841
(I1
(I1
tp842
g12
I00
S':AYD\xcf\x86V@'
p843
tp844
bag2
(g3
(I0
tp845
g5
tp846
Rp847
(I1
(I1
tp848
g12
I00
S']\x0c\xb9\xd8\x03\xa9V@'
p849
tp850
bag2
(g3
(I0
tp851
g5
tp852
Rp853
(I1
(I1
tp854
g12
I00
S'1MH.\x87\xcbV@'
p855
tp856
bag2
(g3
(I0
tp857
g5
tp858
Rp859
(I1
(I1
tp860
g12
I00
S'\xb5\xf1\xa5\xb9Y\xeeV@'
p861
tp862
bag2
(g3
(I0
tp863
g5
tp864
Rp865
(I1
(I1
tp866
g12
I00
S'R\x1b\xae\xee{\x11W@'
p867
tp868
bag2
(g3
(I0
tp869
g5
tp870
Rp871
(I1
(I1
tp872
g12
I00
S'\xd2<\x8c@\xee4W@'
p873
tp874
bag2
(g3
(I0
tp875
g5
tp876
Rp877
(I1
(I1
tp878
g12
I00
S'p\x02\xef!\xb1XW@'
p879
tp880
bag2
(g3
(I0
tp881
g5
tp882
Rp883
(I1
(I1
tp884
g12
I00
S'S\x16u\x05\xc5|W@'
p885
tp886
bag2
(g3
(I0
tp887
g5
tp888
Rp889
(I1
(I1
tp890
g12
I00
S'\x1e\xf8j]*\xa1W@'
p891
tp892
bag2
(g3
(I0
tp893
g5
tp894
Rp895
(I1
(I1
tp896
g12
I00
S'q\xdf\xaa\x9b\xe1\xc5W@'
p897
tp898
bag2
(g3
(I0
tp899
g5
tp900
Rp901
(I1
(I1
tp902
g12
I00
S'YQ\xf41\xeb\xeaW@'
p903
tp904
bag2
(g3
(I0
tp905
g5
tp906
Rp907
(I1
(I1
tp908
g12
I00
S'\xbbu{\x91G\x10X@'
p909
tp910
bag2
(g3
(I0
tp911
g5
tp912
Rp913
(I1
(I1
tp914
g12
I00
S'\x90Q\xad*\xf75X@'
p915
tp916
bag2
(g3
(I0
tp917
g5
tp918
Rp919
(I1
(I1
tp920
g12
I00
S'\xb9"Fm\xfa[X@'
p921
tp922
bag2
(g3
(I0
tp923
g5
tp924
Rp925
(I1
(I1
tp926
g12
I00
S'\xe8\x9c?\xc8Q\x82X@'
p927
tp928
bag2
(g3
(I0
tp929
g5
tp930
Rp931
(I1
(I1
tp932
g12
I00
S'4`\x01\xaa\xfd\xa8X@'
p933
tp934
bag2
(g3
(I0
tp935
g5
tp936
Rp937
(I1
(I1
tp938
g12
I00
S'\xaf\xafI\x80\xfe\xcfX@'
p939
tp940
bag2
(g3
(I0
tp941
g5
tp942
Rp943
(I1
(I1
tp944
g12
I00
S'\xfc/G\xb8T\xf7X@'
p945
tp946
bag2
(g3
(I0
tp947
g5
tp948
Rp949
(I1
(I1
tp950
g12
I00
S'\xce\x1aH\xbe\x00\x1fY@'
p951
tp952
bag2
(g3
(I0
tp953
g5
tp954
Rp955
(I1
(I1
tp956
g12
I00
S';#\x12\xfe\x02GY@'
p957
tp958
bag2
(g3
(I0
tp959
g5
tp960
Rp961
(I1
(I1
tp962
g12
I00
S'\xc1\x8b\xba\xe2[oY@'
p963
tp964
bag2
(g3
(I0
tp965
g5
tp966
Rp967
(I1
(I1
tp968
g12
I00
S'\x14\xf0\xcc\xd5\x0b\x98Y@'
p969
tp970
bag2
(g3
(I0
tp971
g5
tp972
Rp973
(I1
(I1
tp974
g12
I00
S'$\x9a\xaa?\x13\xc1Y@'
p975
tp976
bag2
(g3
(I0
tp977
g5
tp978
Rp979
(I1
(I1
tp980
g12
I00
S'\xcc|\x91\x87r\xeaY@'
p981
tp982
bag2
(g3
(I0
tp983
g5
tp984
Rp985
(I1
(I1
tp986
g12
I00
S'z\xc4\xbc\x13*\x14Z@'
p987
tp988
bag2
(g3
(I0
tp989
g5
tp990
Rp991
(I1
(I1
tp992
g12
I00
S'\xc8\xa8sI:>Z@'
p993
tp994
bag2
(g3
(I0
tp995
g5
tp996
Rp997
(I1
(I1
tp998
g12
I00
S'\xa5\xc4=\x8e\xa3hZ@'
p999
tp1000
bag2
(g3
(I0
tp1001
g5
tp1002
Rp1003
(I1
(I1
tp1004
g12
I00
S'{\xeb\xc9Df\x93Z@'
p1005
tp1006
bag2
(g3
(I0
tp1007
g5
tp1008
Rp1009
(I1
(I1
tp1010
g12
I00
S'\x02WJ\xce\x82\xbeZ@'
p1011
tp1012
bag2
(g3
(I0
tp1013
g5
tp1014
Rp1015
(I1
(I1
tp1016
g12
I00
S'\xf2T\xb1\x8a\xf9\xe9Z@'
p1017
tp1018
bag2
(g3
(I0
tp1019
g5
tp1020
Rp1021
(I1
(I1
tp1022
g12
I00
S'\xe4\xb94\xda\xca\x15[@'
p1023
tp1024
bag2
(g3
(I0
tp1025
g5
tp1026
Rp1027
(I1
(I1
tp1028
g12
I00
S'\xa8C\x86\x19\xf7A[@'
p1029
tp1030
bag2
(g3
(I0
tp1031
g5
tp1032
Rp1033
(I1
(I1
tp1034
g12
I00
S'\xbaUb\xa4~n[@'
p1035
tp1036
bag2
(g3
(I0
tp1037
g5
tp1038
Rp1039
(I1
(I1
tp1040
g12
I00
S'}O\xf3\xd5a\x9b[@'
p1041
tp1042
bag2
(g3
(I0
tp1043
g5
tp1044
Rp1045
(I1
(I1
tp1046
g12
I00
S'T)\xd1\x05\xa1\xc8[@'
p1047
tp1048
bag2
(g3
(I0
tp1049
g5
tp1050
Rp1051
(I1
(I1
tp1052
g12
I00
S'! \xdc\x8c<\xf6[@'
p1053
tp1054
bag2
(g3
(I0
tp1055
g5
tp1056
Rp1057
(I1
(I1
tp1058
g12
I00
S'a{\x0f\xbf4$\\@'
p1059
tp1060
bag2
(g3
(I0
tp1061
g5
tp1062
Rp1063
(I1
(I1
tp1064
g12
I00
S'\xa0\xc1\xdc\xf0\x89R\\@'
p1065
tp1066
bag2
(g3
(I0
tp1067
g5
tp1068
Rp1069
(I1
(I1
tp1070
g12
I00
S'\xcc\xca\xb0r<\x81\\@'
p1071
tp1072
bag2
(g3
(I0
tp1073
g5
tp1074
Rp1075
(I1
(I1
tp1076
g12
I00
S'\x9a\x11\xc7\x95L\xb0\\@'
p1077
tp1078
bag2
(g3
(I0
tp1079
g5
tp1080
Rp1081
(I1
(I1
tp1082
g12
I00
S':\xf3\x8d\xa6\xba\xdf\\@'
p1083
tp1084
bag2
(g3
(I0
tp1085
g5
tp1086
Rp1087
(I1
(I1
tp1088
g12
I00
S'\x02\xa6d\xf1\x86\x0f]@'
p1089
tp1090
bag2
(g3
(I0
tp1091
g5
tp1092
Rp1093
(I1
(I1
tp1094
g12
I00
S'\xa7\xdet\xbf\xb1?]@'
p1095
tp1096
bag2
(g3
(I0
tp1097
g5
tp1098
Rp1099
(I1
(I1
tp1100
g12
I00
S'CT\xc2V;p]@'
p1101
tp1102
bag2
(g3
(I0
tp1103
g5
tp1104
Rp1105
(I1
(I1
tp1106
g12
I00
S'\x01Q\x06\xfd#\xa1]@'
p1107
tp1108
bag2
(g3
(I0
tp1109
g5
tp1110
Rp1111
(I1
(I1
tp1112
g12
I00
S'\x08\xdb\xb6\xf4k\xd2]@'
p1113
tp1114
bag2
(g3
(I0
tp1115
g5
tp1116
Rp1117
(I1
(I1
tp1118
g12
I00
S'\nI9}\x13\x04^@'
p1119
tp1120
bag2
(g3
(I0
tp1121
g5
tp1122
Rp1123
(I1
(I1
tp1124
g12
I00
S'\x15\x98\x8f\xd3\x1a6^@'
p1125
tp1126
bag2
(g3
(I0
tp1127
g5
tp1128
Rp1129
(I1
(I1
tp1130
g12
I00
S'6\xdc\x932\x82h^@'
p1131
tp1132
bag2
(g3
(I0
tp1133
g5
tp1134
Rp1135
(I1
(I1
tp1136
g12
I00
S'l\xc9\x1d\xd3I\x9b^@'
p1137
tp1138
bag2
(g3
(I0
tp1139
g5
tp1140
Rp1141
(I1
(I1
tp1142
g12
I00
S'\xacZu\xeaq\xce^@'
p1143
tp1144
bag2
(g3
(I0
tp1145
g5
tp1146
Rp1147
(I1
(I1
tp1148
g12
I00
S'\xe8;\x12\xab\xfa\x01_@'
p1149
tp1150
bag2
(g3
(I0
tp1151
g5
tp1152
Rp1153
(I1
(I1
tp1154
g12
I00
S' i\x91D\xe45_@'
p1155
tp1156
bag2
(g3
(I0
tp1157
g5
tp1158
Rp1159
(I1
(I1
tp1160
g12
I00
S'\x86L\x8f\xe3.j_@'
p1161
tp1162
bag2
(g3
(I0
tp1163
g5
tp1164
Rp1165
(I1
(I1
tp1166
g12
I00
S'\xb3\x85\xbb\xb1\xda\x9e_@'
p1167
tp1168
bag2
(g3
(I0
tp1169
g5
tp1170
Rp1171
(I1
(I1
tp1172
g12
I00
S'\x08fy\xd5\xe7\xd3_@'
p1173
tp1174
bag2
(g3
(I0
tp1175
g5
tp1176
Rp1177
(I1
(I1
tp1178
g12
I00
S'\x0f\xd1\xf88\xab\x04`@'
p1179
tp1180
bag2
(g3
(I0
tp1181
g5
tp1182
Rp1183
(I1
(I1
tp1184
g12
I00
S'\xb3\x9d\xc4S\x93\x1f`@'
p1185
tp1186
bag2
(g3
(I0
tp1187
g5
tp1188
Rp1189
(I1
(I1
tp1190
g12
I00
S'\xf2\xb6\xaaI\xac:`@'
p1191
tp1192
bag2
(g3
(I0
tp1193
g5
tp1194
Rp1195
(I1
(I1
tp1196
g12
I00
S"\xcf[\x08'\xf6U`@"
p1197
tp1198
bag2
(g3
(I0
tp1199
g5
tp1200
Rp1201
(I1
(I1
tp1202
g12
I00
S'+FV\xf6pq`@'
p1203
tp1204
bag2
(g3
(I0
tp1205
g5
tp1206
Rp1207
(I1
(I1
tp1208
g12
I00
S'S|t\xc0\x1c\x8d`@'
p1209
tp1210
bag2
(g3
(I0
tp1211
g5
tp1212
Rp1213
(I1
(I1
tp1214
g12
I00
S'Y\xbf\x08\x8d\xf9\xa8`@'
p1215
tp1216
bag2
(g3
(I0
tp1217
g5
tp1218
Rp1219
(I1
(I1
tp1220
g12
I00
S'~\x85\x9c`\x07\xc5`@'
p1221
tp1222
bag2
(g3
(I0
tp1223
g5
tp1224
Rp1225
(I1
(I1
tp1226
g12
I00
S'T\xd9\x8e>F\xe1`@'
p1227
tp1228
bag2
(g3
(I0
tp1229
g5
tp1230
Rp1231
(I1
(I1
tp1232
g12
I00
S'\x01m%(\xb6\xfd`@'
p1233
tp1234
bag2
(g3
(I0
tp1235
g5
tp1236
Rp1237
(I1
(I1
tp1238
g12
I00
S'b\x1c@\x1cW\x1aa@'
p1239
tp1240
bag2
(g3
(I0
tp1241
g5
tp1242
Rp1243
(I1
(I1
tp1244
g12
I00
S'$\x0f6\x18)7a@'
p1245
tp1246
bag2
(g3
(I0
tp1247
g5
tp1248
Rp1249
(I1
(I1
tp1250
g12
I00
S'Z\xd2\xd4\x16,Ta@'
p1251
tp1252
bag2
(g3
(I0
tp1253
g5
tp1254
Rp1255
(I1
(I1
tp1256
g12
I00
S'd\xf2\x84\x10`qa@'
p1257
tp1258
bag2
(g3
(I0
tp1259
g5
tp1260
Rp1261
(I1
(I1
tp1262
g12
I00
S'&\xe1`\xfc\xc4\x8ea@'
p1263
tp1264
bag2
(g3
(I0
tp1265
g5
tp1266
Rp1267
(I1
(I1
tp1268
g12
I00
S'\r\x15\x1c\xceZ\xaca@'
p1269
tp1270
bag2
(g3
(I0
tp1271
g5
tp1272
Rp1273
(I1
(I1
tp1274
g12
I00
S'g`Bw!\xcaa@'
p1275
tp1276
bag2
(g3
(I0
tp1277
g5
tp1278
Rp1279
(I1
(I1
tp1280
g12
I00
S')d\xf0\xe7\x18\xe8a@'
p1281
tp1282
bag2
(g3
(I0
tp1283
g5
tp1284
Rp1285
(I1
(I1
tp1286
g12
I00
S'\x87\xae\x15\rA\x06b@'
p1287
tp1288
bag2
(g3
(I0
tp1289
g5
tp1290
Rp1291
(I1
(I1
tp1292
g12
I00
S'\xfa,!\xd1\x99$b@'
p1293
tp1294
bag2
(g3
(I0
tp1295
g5
tp1296
Rp1297
(I1
(I1
tp1298
g12
I00
S'\xac\xa2\n\x1c#Cb@'
p1299
tp1300
bag2
(g3
(I0
tp1301
g5
tp1302
Rp1303
(I1
(I1
tp1304
g12
I00
S'#\xc5@\xd3\xdcab@'
p1305
tp1306
bag2
(g3
(I0
tp1307
g5
tp1308
Rp1309
(I1
(I1
tp1310
g12
I00
S'\x02F\x9c\xd9\xc6\x80b@'
p1311
tp1312
bag2
(g3
(I0
tp1313
g5
tp1314
Rp1315
(I1
(I1
tp1316
g12
I00
S'\xc3\xe1A\x0f\xe1\x9fb@'
p1317
tp1318
bag2
(g3
(I0
tp1319
g5
tp1320
Rp1321
(I1
(I1
tp1322
g12
I00
S'\xb7U\x91Q+\xbfb@'
p1323
tp1324
bag2
(g3
(I0
tp1325
g5
tp1326
Rp1327
(I1
(I1
tp1328
g12
I00
S';\x06\x13{\xa5\xdeb@'
p1329
tp1330
bag2
(g3
(I0
tp1331
g5
tp1332
Rp1333
(I1
(I1
tp1334
g12
I00
S'\xd3\xf6[cO\xfeb@'
p1335
tp1336
bag2
(g3
(I0
tp1337
g5
tp1338
Rp1339
(I1
(I1
tp1340
g12
I00
S'W\x8e\x04\xe0(\x1ec@'
p1341
tp1342
bag2
(g3
(I0
tp1343
g5
tp1344
Rp1345
(I1
(I1
tp1346
g12
I00
S'\xb4\xd1\xda\xc21>c@'
p1347
tp1348
bag2
(g3
(I0
tp1349
g5
tp1350
Rp1351
(I1
(I1
tp1352
g12
I00
S'>@Y\xdai^c@'
p1353
tp1354
bag2
(g3
(I0
tp1355
g5
tp1356
Rp1357
(I1
(I1
tp1358
g12
I00
S'3\xa8\xdd\xf2\xd0~c@'
p1359
tp1360
bag2
(g3
(I0
tp1361
g5
tp1362
Rp1363
(I1
(I1
tp1364
g12
I00
S'A\xca(\xd5f\x9fc@'
p1365
tp1366
bag2
(g3
(I0
tp1367
g5
tp1368
Rp1369
(I1
(I1
tp1370
g12
I00
S'7-\xb4F+\xc0c@'
p1371
tp1372
bag2
(g3
(I0
tp1373
g5
tp1374
Rp1375
(I1
(I1
tp1376
g12
I00
S'\xdd\x8c@\n\x1e\xe1c@'
p1377
tp1378
bag2
(g3
(I0
tp1379
g5
tp1380
Rp1381
(I1
(I1
tp1382
g12
I00
S'\xab*\xf1\xde>\x02d@'
p1383
tp1384
bag2
(g3
(I0
tp1385
g5
tp1386
Rp1387
(I1
(I1
tp1388
g12
I00
S'^\xbe>\x80\x8d#d@'
p1389
tp1390
bag2
(g3
(I0
tp1391
g5
tp1392
Rp1393
(I1
(I1
tp1394
g12
I00
S'\xae\xce\x8f\xa7\tEd@'
p1395
tp1396
bag2
(g3
(I0
tp1397
g5
tp1398
Rp1399
(I1
(I1
tp1400
g12
I00
S'\x97\x19\x9d\t\xb3fd@'
p1401
tp1402
bag2
(g3
(I0
tp1403
g5
tp1404
Rp1405
(I1
(I1
tp1406
g12
I00
S'\xd2\x85\xd5W\x89\x88d@'
p1407
tp1408
bag2
(g3
(I0
tp1409
g5
tp1410
Rp1411
(I1
(I1
tp1412
g12
I00
S'\xee1G@\x8c\xaad@'
p1413
tp1414
bag2
(g3
(I0
tp1415
g5
tp1416
Rp1417
(I1
(I1
tp1418
g12
I00
S'P\xfe\xd5m\xbb\xccd@'
p1419
tp1420
bag2
(g3
(I0
tp1421
g5
tp1422
Rp1423
(I1
(I1
tp1424
g12
I00
S')\x99s\x87\x16\xefd@'
p1425
tp1426
bag2
(g3
(I0
tp1427
g5
tp1428
Rp1429
(I1
(I1
tp1430
g12
I00
S'\xf4\x1e<0\x9d\x11e@'
p1431
tp1432
bag2
(g3
(I0
tp1433
g5
tp1434
Rp1435
(I1
(I1
tp1436
g12
I00
S'\xda\x02\x89\x07O4e@'
p1437
tp1438
bag2
(g3
(I0
tp1439
g5
tp1440
Rp1441
(I1
(I1
tp1442
g12
I00
S'\xa5\x062\xa9+We@'
p1443
tp1444
bag2
(g3
(I0
tp1445
g5
tp1446
Rp1447
(I1
(I1
tp1448
g12
I00
S'\xff}8\xad2ze@'
p1449
tp1450
bag2
(g3
(I0
tp1451
g5
tp1452
Rp1453
(I1
(I1
tp1454
g12
I00
S'U\xaeZ\xa7c\x9de@'
p1455
tp1456
bag2
(g3
(I0
tp1457
g5
tp1458
Rp1459
(I1
(I1
tp1460
g12
I00
S"\xcb\x16-'\xbe\xc0e@"
p1461
tp1462
bag2
(g3
(I0
tp1463
g5
tp1464
Rp1465
(I1
(I1
tp1466
g12
I00
S'\xef\x1ac\xb8A\xe4e@'
p1467
tp1468
bag2
(g3
(I0
tp1469
g5
tp1470
Rp1471
(I1
(I1
tp1472
g12
I00
S'X\x18s\xe3\xed\x07f@'
p1473
tp1474
bag2
(g3
(I0
tp1475
g5
tp1476
Rp1477
(I1
(I1
tp1478
g12
I00
S'\xe6\x9b\x19+\xc2+f@'
p1479
tp1480
bag2
(g3
(I0
tp1481
g5
tp1482
Rp1483
(I1
(I1
tp1484
g12
I00
S'\xa9\xca\x8e\x0f\xbeOf@'
p1485
tp1486
bag2
(g3
(I0
tp1487
g5
tp1488
Rp1489
(I1
(I1
tp1490
g12
I00
S'q\x00\xf5\n\xe1sf@'
p1491
tp1492
bag2
(g3
(I0
tp1493
g5
tp1494
Rp1495
(I1
(I1
tp1496
g12
I00
S'\xd2\x8c5\x95*\x98f@'
p1497
tp1498
bag2
(g3
(I0
tp1499
g5
tp1500
Rp1501
(I1
(I1
tp1502
g12
I00
S'\x10\xff\x0e \x9a\xbcf@'
p1503
tp1504
bag2
(g3
(I0
tp1505
g5
tp1506
Rp1507
(I1
(I1
tp1508
g12
I00
S'+\xbe\x12\x19/\xe1f@'
p1509
tp1510
bag2
(g3
(I0
tp1511
g5
tp1512
Rp1513
(I1
(I1
tp1514
g12
I00
S'\xa7\x91\x81\xea\xe8\x05g@'
p1515
tp1516
bag2
(g3
(I0
tp1517
g5
tp1518
Rp1519
(I1
(I1
tp1520
g12
I00
S'8\x86\x11\xf9\xc6*g@'
p1521
tp1522
bag2
(g3
(I0
tp1523
g5
tp1524
Rp1525
(I1
(I1
tp1526
g12
I00
S'\xf4\xf4\xe8\xa4\xc8Og@'
p1527
tp1528
bag2
(g3
(I0
tp1529
g5
tp1530
Rp1531
(I1
(I1
tp1532
g12
I00
S'5\t\x96I\xedtg@'
p1533
tp1534
bag2
(g3
(I0
tp1535
g5
tp1536
Rp1537
(I1
(I1
tp1538
g12
I00
S'\xf5\xab\xeb=4\x9ag@'
p1539
tp1540
bag2
(g3
(I0
tp1541
g5
tp1542
Rp1543
(I1
(I1
tp1544
g12
I00
S'L\x88\xe9\xd3\x9c\xbfg@'
p1545
tp1546
bag2
(g3
(I0
tp1547
g5
tp1548
Rp1549
(I1
(I1
tp1550
g12
I00
S'uY\x9dX&\xe5g@'
p1551
tp1552
bag2
(g3
(I0
tp1553
g5
tp1554
Rp1555
(I1
(I1
tp1556
g12
I00
S'_\x82\x18\x14\xd0\nh@'
p1557
tp1558
bag2
(g3
(I0
tp1559
g5
tp1560
Rp1561
(I1
(I1
tp1562
g12
I00
S'\xfa`iJ\x990h@'
p1563
tp1564
bag2
(g3
(I0
tp1565
g5
tp1566
Rp1567
(I1
(I1
tp1568
g12
I00
S'\xf9\x9aV9\x81Vh@'
p1569
tp1570
bag2
(g3
(I0
tp1571
g5
tp1572
Rp1573
(I1
(I1
tp1574
g12
I00
S'\xd5\xc6`\x19\x87|h@'
p1575
tp1576
bag2
(g3
(I0
tp1577
g5
tp1578
Rp1579
(I1
(I1
tp1580
g12
I00
S'Q\xa7\x84\x1f\xaa\xa2h@'
p1581
tp1582
bag2
(g3
(I0
tp1583
g5
tp1584
Rp1585
(I1
(I1
tp1586
g12
I00
S'R\xd7?y\xe9\xc8h@'
p1587
tp1588
bag2
(g3
(I0
tp1589
g5
tp1590
Rp1591
(I1
(I1
tp1592
g12
I00
S'tZ\x1dQD\xefh@'
p1593
tp1594
bag2
(g3
(I0
tp1595
g5
tp1596
Rp1597
(I1
(I1
tp1598
g12
I00
S'M\xb9r\xca\xb9\x15i@'
p1599
tp1600
bag2
(g3
(I0
tp1601
g5
tp1602
Rp1603
(I1
(I1
tp1604
g12
I00
S'\x04u\xa1\x03I<i@'
p1605
tp1606
bag2
(g3
(I0
tp1607
g5
tp1608
Rp1609
(I1
(I1
tp1610
g12
I00
S'"\x82\x9d\x16\xf1bi@'
p1611
tp1612
bag2
(g3
(I0
tp1613
g5
tp1614
Rp1615
(I1
(I1
tp1616
g12
I00
S'J\x05\xb3\x16\xb1\x89i@'
p1617
tp1618
bag2
(g3
(I0
tp1619
g5
tp1620
Rp1621
(I1
(I1
tp1622
g12
I00
S'\x8f8\xc0\x11\x88\xb0i@'
p1623
tp1624
bag2
(g3
(I0
tp1625
g5
tp1626
Rp1627
(I1
(I1
tp1628
g12
I00
S'\xc9\r\xf3\x0fu\xd7i@'
p1629
tp1630
bag2
(g3
(I0
tp1631
g5
tp1632
Rp1633
(I1
(I1
tp1634
g12
I00
S'\xc6\xf0\xdd\x13w\xfei@'
p1635
tp1636
bag2
(g3
(I0
tp1637
g5
tp1638
Rp1639
(I1
(I1
tp1640
g12
I00
S'M\x02@\x1a\x8d%j@'
p1641
tp1642
bag2
(g3
(I0
tp1643
g5
tp1644
Rp1645
(I1
(I1
tp1646
g12
I00
S'Q;\xd0\x19\xb6Lj@'
p1647
tp1648
bag2
(g3
(I0
tp1649
g5
tp1650
Rp1651
(I1
(I1
tp1652
g12
I00
S'\x90\xcbp\x03\xf1sj@'
p1653
tp1654
bag2
(g3
(I0
tp1655
g5
tp1656
Rp1657
(I1
(I1
tp1658
g12
I00
S'\xcc\xb1\x04\xc3<\x9bj@'
p1659
tp1660
bag2
(g3
(I0
tp1661
g5
tp1662
Rp1663
(I1
(I1
tp1664
g12
I00
S'u\xa9\n=\x98\xc2j@'
p1665
tp1666
bag2
(g3
(I0
tp1667
g5
tp1668
Rp1669
(I1
(I1
tp1670
g12
I00
S'\xf6RQP\x02\xeaj@'
p1671
tp1672
bag2
(g3
(I0
tp1673
g5
tp1674
Rp1675
(I1
(I1
tp1676
g12
I00
S'\x0e(\xfe\xd5y\x11k@'
p1677
tp1678
bag2
(g3
(I0
tp1679
g5
tp1680
Rp1681
(I1
(I1
tp1682
g12
I00
S'H%>\xa0\xfd8k@'
p1683
tp1684
bag2
(g3
(I0
tp1685
g5
tp1686
Rp1687
(I1
(I1
tp1688
g12
I00
S"\xf3\xab'{\x8c`k@"
p1689
tp1690
bag2
(g3
(I0
tp1691
g5
tp1692
Rp1693
(I1
(I1
tp1694
g12
I00
S'\xa1i.-%\x88k@'
p1695
tp1696
bag2
(g3
(I0
tp1697
g5
tp1698
Rp1699
(I1
(I1
tp1700
g12
I00
S'\x93%du\xc6\xafk@'
p1701
tp1702
bag2
(g3
(I0
tp1703
g5
tp1704
Rp1705
(I1
(I1
tp1706
g12
I00
S'\x9f\x9b\x89\x0co\xd7k@'
p1707
tp1708
bag2
(g3
(I0
tp1709
g5
tp1710
Rp1711
(I1
(I1
tp1712
g12
I00
S'V|\x1e\xa5\x1d\xffk@'
p1713
tp1714
bag2
(g3
(I0
tp1715
g5
tp1716
Rp1717
(I1
(I1
tp1718
g12
I00
S'\xa8\xe9\x1b\xeb\xd0&l@'
p1719
tp1720
bag2
(g3
(I0
tp1721
g5
tp1722
Rp1723
(I1
(I1
tp1724
g12
I00
S'q\x95\xad\x83\x87Nl@'
p1725
tp1726
bag2
(g3
(I0
tp1727
g5
tp1728
Rp1729
(I1
(I1
tp1730
g12
I00
S'G\tc\r@vl@'
p1731
tp1732
bag2
(g3
(I0
tp1733
g5
tp1734
Rp1735
(I1
(I1
tp1736
g12
I00
S'\xdc\x99\xfd\x1f\xf9\x9dl@'
p1737
tp1738
bag2
(g3
(I0
tp1739
g5
tp1740
Rp1741
(I1
(I1
tp1742
g12
I00
S'\x89\xe2HL\xb1\xc5l@'
p1743
tp1744
bag2
(g3
(I0
tp1745
g5
tp1746
Rp1747
(I1
(I1
tp1748
g12
I00
S'\xd2\xaer\x1dg\xedl@'
p1749
tp1750
bag2
(g3
(I0
tp1751
g5
tp1752
Rp1753
(I1
(I1
tp1754
g12
I00
S'I\xaa\x0c\x16\x19\x15m@'
p1755
tp1756
bag2
(g3
(I0
tp1757
g5
tp1758
Rp1759
(I1
(I1
tp1760
g12
I00
S'.\xd0\xde\xb2\xc5<m@'
p1761
tp1762
bag2
(g3
(I0
tp1763
g5
tp1764
Rp1765
(I1
(I1
tp1766
g12
I00
S'J\xe2\xechkdm@'
p1767
tp1768
bag2
(g3
(I0
tp1769
g5
tp1770
Rp1771
(I1
(I1
tp1772
g12
I00
S'\x92\x81\xe3\xa6\x08\x8cm@'
p1773
tp1774
bag2
(g3
(I0
tp1775
g5
tp1776
Rp1777
(I1
(I1
tp1778
g12
I00
S'<\x01k\xd3\x9b\xb3m@'
p1779
tp1780
bag2
(g3
(I0
tp1781
g5
tp1782
Rp1783
(I1
(I1
tp1784
g12
I00
S'\x9f\x97 N#\xdbm@'
p1785
tp1786
bag2
(g3
(I0
tp1787
g5
tp1788
Rp1789
(I1
(I1
tp1790
g12
I00
S'G\xa8\xb1o\x9d\x02n@'
p1791
tp1792
bag2
(g3
(I0
tp1793
g5
tp1794
Rp1795
(I1
(I1
tp1796
g12
I00
S'\xae\x90\x96\x89\x08*n@'
p1797
tp1798
bag2
(g3
(I0
tp1799
g5
tp1800
Rp1801
(I1
(I1
tp1802
g12
I00
S'\x0cAZ\xe6bQn@'
p1803
tp1804
bag2
(g3
(I0
tp1805
g5
tp1806
Rp1807
(I1
(I1
tp1808
g12
I00
S'\x93\x98\x9d\xc8\xaaxn@'
p1809
tp1810
bag2
(g3
(I0
tp1811
g5
tp1812
Rp1813
(I1
(I1
tp1814
g12
I00
S'b]Fk\xde\x9fn@'
p1815
tp1816
bag2
(g3
(I0
tp1817
g5
tp1818
Rp1819
(I1
(I1
tp1820
g12
I00
S'\n\x03\xb2\x01\xfc\xc6n@'
p1821
tp1822
bag2
(g3
(I0
tp1823
g5
tp1824
Rp1825
(I1
(I1
tp1826
g12
I00
S'A\xceT\xb8\x01\xeen@'
p1827
tp1828
bag2
(g3
(I0
tp1829
g5
tp1830
Rp1831
(I1
(I1
tp1832
g12
I00
S'N\xdd\xc8\xb4\xed\x14o@'
p1833
tp1834
bag2
(g3
(I0
tp1835
g5
tp1836
Rp1837
(I1
(I1
tp1838
g12
I00
S'[\x8f\x92\x13\xbe;o@'
p1839
tp1840
bag2
(g3
(I0
tp1841
g5
tp1842
Rp1843
(I1
(I1
tp1844
g12
I00
S'\xe8\xa6\xb0\xeapbo@'
p1845
tp1846
bag2
(g3
(I0
tp1847
g5
tp1848
Rp1849
(I1
(I1
tp1850
g12
I00
S'>\xcc\xd8G\x04\x89o@'
p1851
tp1852
bag2
(g3
(I0
tp1853
g5
tp1854
Rp1855
(I1
(I1
tp1856
g12
I00
S'\xd5\x07;1v\xafo@'
p1857
tp1858
bag2
(g3
(I0
tp1859
g5
tp1860
Rp1861
(I1
(I1
tp1862
g12
I00
S'J\x97e\xa5\xc4\xd5o@'
p1863
tp1864
bag2
(g3
(I0
tp1865
g5
tp1866
Rp1867
(I1
(I1
tp1868
g12
I00
S'W\xaag\x9b\xed\xfbo@'
p1869
tp1870
bag2
(g3
(I0
tp1871
g5
tp1872
Rp1873
(I1
(I1
tp1874
g12
I00
S'\xfaZG\x81\xf7\x10p@'
p1875
tp1876
bag2
(g3
(I0
tp1877
g5
tp1878
Rp1879
(I1
(I1
tp1880
g12
I00
S'.g\ta\xe3#p@'
p1881
tp1882
bag2
(g3
(I0
tp1883
g5
tp1884
Rp1885
(I1
(I1
tp1886
g12
I00
S'\xafy\xd8\\\xb96p@'
p1887
tp1888
bag2
(g3
(I0
tp1889
g5
tp1890
Rp1891
(I1
(I1
tp1892
g12
I00
S'\xf8\xd7>`xIp@'
p1893
tp1894
bag2
(g3
(I0
tp1895
g5
tp1896
Rp1897
(I1
(I1
tp1898
g12
I00
S'\x1a\xae#S\x1f\\p@'
p1899
tp1900
bag2
(g3
(I0
tp1901
g5
tp1902
Rp1903
(I1
(I1
tp1904
g12
I00
S'P3\x8f\x19\xadnp@'
p1905
tp1906
bag2
(g3
(I0
tp1907
g5
tp1908
Rp1909
(I1
(I1
tp1910
g12
I00
S'6\x00\xb5\x93 \x81p@'
p1911
tp1912
bag2
(g3
(I0
tp1913
g5
tp1914
Rp1915
(I1
(I1
tp1916
g12
I00
S'_\xa2Z\x9dx\x93p@'
p1917
tp1918
bag2
(g3
(I0
tp1919
g5
tp1920
Rp1921
(I1
(I1
tp1922
g12
I00
S'S\x16y\x0f\xb4\xa5p@'
p1923
tp1924
bag2
(g3
(I0
tp1925
g5
tp1926
Rp1927
(I1
(I1
tp1928
g12
I00
S'\x0c^\x8f\xbe\xd1\xb7p@'
p1929
tp1930
bag2
(g3
(I0
tp1931
g5
tp1932
Rp1933
(I1
(I1
tp1934
g12
I00
S'+\xc8I{\xd0\xc9p@'
p1935
tp1936
bag2
(g3
(I0
tp1937
g5
tp1938
Rp1939
(I1
(I1
tp1940
g12
I00
S'\xe7\x03\x11\x12\xaf\xdbp@'
p1941
tp1942
bag2
(g3
(I0
tp1943
g5
tp1944
Rp1945
(I1
(I1
tp1946
g12
I00
S'\x064MKl\xedp@'
p1947
tp1948
bag2
(g3
(I0
tp1949
g5
tp1950
Rp1951
(I1
(I1
tp1952
g12
I00
S'\xbe\xdb\xd8\xeb\x06\xffp@'
p1953
tp1954
bag2
(g3
(I0
tp1955
g5
tp1956
Rp1957
(I1
(I1
tp1958
g12
I00
S'\xef!\x11\xb5}\x10q@'
p1959
tp1960
bag2
(g3
(I0
tp1961
g5
tp1962
Rp1963
(I1
(I1
tp1964
g12
I00
S'\xf3\x8b\x17d\xcf!q@'
p1965
tp1966
bag2
(g3
(I0
tp1967
g5
tp1968
Rp1969
(I1
(I1
tp1970
g12
I00
S'\x05IE\xb2\xfa2q@'
p1971
tp1972
bag2
(g3
(I0
tp1973
g5
tp1974
Rp1975
(I1
(I1
tp1976
g12
I00
S'l\r\x7fT\xfeCq@'
p1977
tp1978
bag2
(g3
(I0
tp1979
g5
tp1980
Rp1981
(I1
(I1
tp1982
g12
I00
S'\x16\xc8\x00\xfd\xd8Tq@'
p1983
tp1984
bag2
(g3
(I0
tp1985
g5
tp1986
Rp1987
(I1
(I1
tp1988
g12
I00
S'<\x00MY\x89eq@'
p1989
tp1990
bag2
(g3
(I0
tp1991
g5
tp1992
Rp1993
(I1
(I1
tp1994
g12
I00
S'\xa9\xc6\xff\x12\x0evq@'
p1995
tp1996
bag2
(g3
(I0
tp1997
g5
tp1998
Rp1999
(I1
(I1
tp2000
g12
I00
S'\xebFc\xd0e\x86q@'
p2001
tp2002
bag2
(g3
(I0
tp2003
g5
tp2004
Rp2005
(I1
(I1
tp2006
g12
I00
S'\xfc\xfd\t4\x8f\x96q@'
p2007
tp2008
bag2
(g3
(I0
tp2009
g5
tp2010
Rp2011
(I1
(I1
tp2012
g12
I00
S'Uq3\xdd\x88\xa6q@'
p2013
tp2014
bag2
(g3
(I0
tp2015
g5
tp2016
Rp2017
(I1
(I1
tp2018
g12
I00
S'KJHgQ\xb6q@'
p2019
tp2020
bag2
(g3
(I0
tp2021
g5
tp2022
Rp2023
(I1
(I1
tp2024
g12
I00
S'\xf99\xbei\xe7\xc5q@'
p2025
tp2026
bag2
(g3
(I0
tp2027
g5
tp2028
Rp2029
(I1
(I1
tp2030
g12
I00
S"\xf0'\xc0xI\xd5q@"
p2031
tp2032
bag2
(g3
(I0
tp2033
g5
tp2034
Rp2035
(I1
(I1
tp2036
g12
I00
S'\xb2\x0e\x01%v\xe4q@'
p2037
tp2038
bag2
(g3
(I0
tp2039
g5
tp2040
Rp2041
(I1
(I1
tp2042
g12
I00
S'M\x8a&\xfck\xf3q@'
p2043
tp2044
bag2
(g3
(I0
tp2045
g5
tp2046
Rp2047
(I1
(I1
tp2048
g12
I00
S'\xc7\x9f"\x88)\x02r@'
p2049
tp2050
bag2
(g3
(I0
tp2051
g5
tp2052
Rp2053
(I1
(I1
tp2054
g12
I00
S'\xf5\x0ctO\xad\x10r@'
p2055
tp2056
bag2
(g3
(I0
tp2057
g5
tp2058
Rp2059
(I1
(I1
tp2060
g12
I00
S'\xfa\xaa\x85\xd5\xf5\x1er@'
p2061
tp2062
bag2
(g3
(I0
tp2063
g5
tp2064
Rp2065
(I1
(I1
tp2066
g12
I00
S'\xaa\x87Q\x9a\x01-r@'
p2067
tp2068
bag2
(g3
(I0
tp2069
g5
tp2070
Rp2071
(I1
(I1
tp2072
g12
I00
S'!\xfb\x0c\x1b\xcf:r@'
p2073
tp2074
bag2
(g3
(I0
tp2075
g5
tp2076
Rp2077
(I1
(I1
tp2078
g12
I00
S'\xc5P3\xd1\\Hr@'
p2079
tp2080
bag2
(g3
(I0
tp2081
g5
tp2082
Rp2083
(I1
(I1
tp2084
g12
I00
S'I-\x9b3\xa9Ur@'
p2085
tp2086
bag2
(g3
(I0
tp2087
g5
tp2088
Rp2089
(I1
(I1
tp2090
g12
I00
S'G&\xe5\xb5\xb2br@'
p2091
tp2092
bag2
(g3
(I0
tp2093
g5
tp2094
Rp2095
(I1
(I1
tp2096
g12
I00
S'\x8f\xfd\xea\xc8wor@'
p2097
tp2098
bag2
(g3
(I0
tp2099
g5
tp2100
Rp2101
(I1
(I1
tp2102
g12
I00
S'0\xecC\xdb\xf6{r@'
p2103
tp2104
bag2
(g3
(I0
tp2105
g5
tp2106
Rp2107
(I1
(I1
tp2108
g12
I00
S'\x1b\xab\xdaX.\x88r@'
p2109
tp2110
bag2
(g3
(I0
tp2111
g5
tp2112
Rp2113
(I1
(I1
tp2114
g12
I00
S'\xf9,\xa4\xab\x1c\x94r@'
p2115
tp2116
bag2
(g3
(I0
tp2117
g5
tp2118
Rp2119
(I1
(I1
tp2120
g12
I00
S'\x0c\xc7";\xc0\x9fr@'
p2121
tp2122
bag2
(g3
(I0
tp2123
g5
tp2124
Rp2125
(I1
(I1
tp2126
g12
I00
S'VO\x18l\x17\xabr@'
p2127
tp2128
bag2
(g3
(I0
tp2129
g5
tp2130
Rp2131
(I1
(I1
tp2132
g12
I00
S'\x0e\xf3\xc6\xa1 \xb6r@'
p2133
tp2134
bag2
(g3
(I0
tp2135
g5
tp2136
Rp2137
(I1
(I1
tp2138
g12
I00
S'\xbf\x8cT=\xda\xc0r@'
p2139
tp2140
bag2
(g3
(I0
tp2141
g5
tp2142
Rp2143
(I1
(I1
tp2144
g12
I00
S'\x980\xd5\x9dB\xcbr@'
p2145
tp2146
bag2
(g3
(I0
tp2147
g5
tp2148
Rp2149
(I1
(I1
tp2150
g12
I00
S'\x90\xec\xed X\xd5r@'
p2151
tp2152
bag2
(g3
(I0
tp2153
g5
tp2154
Rp2155
(I1
(I1
tp2156
g12
I00
S'U\r\x9d"\x19\xdfr@'
p2157
tp2158
bag2
(g3
(I0
tp2159
g5
tp2160
Rp2161
(I1
(I1
tp2162
g12
I00
S'=\x98\n\xfe\x83\xe8r@'
p2163
tp2164
bag2
(g3
(I0
tp2165
g5
tp2166
Rp2167
(I1
(I1
tp2168
g12
I00
S"\xb9'1\r\x97\xf1r@"
p2169
tp2170
bag2
(g3
(I0
tp2171
g5
tp2172
Rp2173
(I1
(I1
tp2174
g12
I00
S'\x900w\xa9P\xfar@'
p2175
tp2176
bag2
(g3
(I0
tp2177
g5
tp2178
Rp2179
(I1
(I1
tp2180
g12
I00
S'\x1d\xcd\n*\xaf\x02s@'
p2181
tp2182
bag2
(g3
(I0
tp2183
g5
tp2184
Rp2185
(I1
(I1
tp2186
g12
I00
S'\xb4=6\xe6\xb0\ns@'
p2187
tp2188
bag2
(g3
(I0
tp2189
g5
tp2190
Rp2191
(I1
(I1
tp2192
g12
I00
S'\xcc ^5T\x12s@'
p2193
tp2194
bag2
(g3
(I0
tp2195
g5
tp2196
Rp2197
(I1
(I1
tp2198
g12
I00
S'\xb0%\xb4m\x97\x19s@'
p2199
tp2200
bag2
(g3
(I0
tp2201
g5
tp2202
Rp2203
(I1
(I1
tp2204
g12
I00
S'M\xfb^\xe6x s@'
p2205
tp2206
bag2
(g3
(I0
tp2207
g5
tp2208
Rp2209
(I1
(I1
tp2210
g12
I00
S'h\x9dJ\xf6\xf6&s@'
p2211
tp2212
bag2
(g3
(I0
tp2213
g5
tp2214
Rp2215
(I1
(I1
tp2216
g12
I00
S'[\xb2\xfc\xf4\x0f-s@'
p2217
tp2218
bag2
(g3
(I0
tp2219
g5
tp2220
Rp2221
(I1
(I1
tp2222
g12
I00
S'\xa9\xbe\xba:\xc22s@'
p2223
tp2224
bag2
(g3
(I0
tp2225
g5
tp2226
Rp2227
(I1
(I1
tp2228
g12
I00
S'\x84-\xa4 \x0c8s@'
p2229
tp2230
bag2
(g3
(I0
tp2231
g5
tp2232
Rp2233
(I1
(I1
tp2234
g12
I00
S'^\xe9y\x01\xec<s@'
p2235
tp2236
bag2
(g3
(I0
tp2237
g5
tp2238
Rp2239
(I1
(I1
tp2240
g12
I00
S'\x9f\x99\xe99`As@'
p2241
tp2242
bag2
(g3
(I0
tp2243
g5
tp2244
Rp2245
(I1
(I1
tp2246
g12
I00
S'l\x98b(gEs@'
p2247
tp2248
bag2
(g3
(I0
tp2249
g5
tp2250
Rp2251
(I1
(I1
tp2252
g12
I00
S'1nI-\xffHs@'
p2253
tp2254
bag2
(g3
(I0
tp2255
g5
tp2256
Rp2257
(I1
(I1
tp2258
g12
I00
S'\xc0!\xb8\xaa&Ls@'
p2259
tp2260
bag2
(g3
(I0
tp2261
g5
tp2262
Rp2263
(I1
(I1
tp2264
g12
I00
S'P\x0f\x84\x05\xdcNs@'
p2265
tp2266
bag2
(g3
(I0
tp2267
g5
tp2268
Rp2269
(I1
(I1
tp2270
g12
I00
S'\xda\xcd\x15\xa5\x1dQs@'
p2271
tp2272
bag2
(g3
(I0
tp2273
g5
tp2274
Rp2275
(I1
(I1
tp2276
g12
I00
S'\xd5\x8av\xf3\xe9Rs@'
p2277
tp2278
bag2
(g3
(I0
tp2279
g5
tp2280
Rp2281
(I1
(I1
tp2282
g12
I00
S'A\xd1\x1d^?Ts@'
p2283
tp2284
bag2
(g3
(I0
tp2285
g5
tp2286
Rp2287
(I1
(I1
tp2288
g12
I00
S'\xa0w\x0fU\x1cUs@'
p2289
tp2290
bag2
(g3
(I0
tp2291
g5
tp2292
Rp2293
(I1
(I1
tp2294
g12
I00
S'\x80s\xd0L\x7fUs@'
p2295
tp2296
bag2
(g3
(I0
tp2297
g5
tp2298
Rp2299
(I1
(I1
tp2300
g12
I00
S'\xb8C\xda\xbcfUs@'
p2301
tp2302
bag2
(g3
(I0
tp2303
g5
tp2304
Rp2305
(I1
(I1
tp2306
g12
I00
S'/\xed\xc5\x1f\xd1Ts@'
p2307
tp2308
bag2
(g3
(I0
tp2309
g5
tp2310
Rp2311
(I1
(I1
tp2312
g12
I00
S'\xa3M%\xf4\xbcSs@'
p2313
tp2314
bag2
(g3
(I0
tp2315
g5
tp2316
Rp2317
(I1
(I1
tp2318
g12
I00
S't\x1a\x80\xbd(Rs@'
p2319
tp2320
bag2
(g3
(I0
tp2321
g5
tp2322
Rp2323
(I1
(I1
tp2324
g12
I00
S'L\xcc\x8c\x03\x13Ps@'
p2325
tp2326
bag2
(g3
(I0
tp2327
g5
tp2328
Rp2329
(I1
(I1
tp2330
g12
I00
S'\xb6\x94\xcbQzMs@'
p2331
tp2332
bag2
(g3
(I0
tp2333
g5
tp2334
Rp2335
(I1
(I1
tp2336
g12
I00
S'\x98f\xf77]Js@'
p2337
tp2338
bag2
(g3
(I0
tp2339
g5
tp2340
Rp2341
(I1
(I1
tp2342
g12
I00
S' \xba\xadL\xbaFs@'
p2343
tp2344
bag2
(g3
(I0
tp2345
g5
tp2346
Rp2347
(I1
(I1
tp2348
g12
I00
S'\x17\xe6\x1f,\x90Bs@'
p2349
tp2350
bag2
(g3
(I0
tp2351
g5
tp2352
Rp2353
(I1
(I1
tp2354
g12
I00
S'\xa6\xd8\xabw\xdd=s@'
p2355
tp2356
bag2
(g3
(I0
tp2357
g5
tp2358
Rp2359
(I1
(I1
tp2360
g12
I00
S'=\x80\xa5\xd5\xa08s@'
p2361
tp2362
bag2
(g3
(I0
tp2363
g5
tp2364
Rp2365
(I1
(I1
tp2366
g12
I00
S'<\x10\xe1\xf1\xd82s@'
p2367
tp2368
bag2
(g3
(I0
tp2369
g5
tp2370
Rp2371
(I1
(I1
tp2372
g12
I00
S'\x89\x9cy~\x84,s@'
p2373
tp2374
bag2
(g3
(I0
tp2375
g5
tp2376
Rp2377
(I1
(I1
tp2378
g12
I00
S'\xaej.6\xa2%s@'
p2379
tp2380
bag2
(g3
(I0
tp2381
g5
tp2382
Rp2383
(I1
(I1
tp2384
g12
I00
S'\xb2\xed\xbb\xd80\x1es@'
p2385
tp2386
bag2
(g3
(I0
tp2387
g5
tp2388
Rp2389
(I1
(I1
tp2390
g12
I00
S'\x93c\x17*/\x16s@'
p2391
tp2392
bag2
(g3
(I0
tp2393
g5
tp2394
Rp2395
(I1
(I1
tp2396
g12
I00
S'#\x9f\x06\xf6\x9b\rs@'
p2397
tp2398
bag2
(g3
(I0
tp2399
g5
tp2400
Rp2401
(I1
(I1
tp2402
g12
I00
S'[\xc4\x98\x0fv\x04s@'
p2403
tp2404
bag2
(g3
(I0
tp2405
g5
tp2406
Rp2407
(I1
(I1
tp2408
g12
I00
S'\xa7\xf0HR\xbc\xfar@'
p2409
tp2410
bag2
(g3
(I0
tp2411
g5
tp2412
Rp2413
(I1
(I1
tp2414
g12
I00
S'\x89\xfa\xe5\x9fm\xf0r@'
p2415
tp2416
bag2
(g3
(I0
tp2417
g5
tp2418
Rp2419
(I1
(I1
tp2420
g12
I00
S'\xb6\xc1\xca\xe1\x88\xe5r@'
p2421
tp2422
bag2
(g3
(I0
tp2423
g5
tp2424
Rp2425
(I1
(I1
tp2426
g12
I00
S'\x7f[\xe5\t\r\xdar@'
p2427
tp2428
bag2
(g3
(I0
tp2429
g5
tp2430
Rp2431
(I1
(I1
tp2432
g12
I00
S'Ge\xef\x11\xf9\xcdr@'
p2433
tp2434
bag2
(g3
(I0
tp2435
g5
tp2436
Rp2437
(I1
(I1
tp2438
g12
I00
S'A\xcb\xb7\xfbK\xc1r@'
p2439
tp2440
bag2
(g3
(I0
tp2441
g5
tp2442
Rp2443
(I1
(I1
tp2444
g12
I00
S'\x1d\xd3\xe4\xd0\x04\xb4r@'
p2445
tp2446
bag2
(g3
(I0
tp2447
g5
tp2448
Rp2449
(I1
(I1
tp2450
g12
I00
S'\xbdz\xb3\xa3"\xa6r@'
p2451
tp2452
bag2
(g3
(I0
tp2453
g5
tp2454
Rp2455
(I1
(I1
tp2456
g12
I00
S'nl\xb3\x8e\xa4\x97r@'
p2457
tp2458
bag2
(g3
(I0
tp2459
g5
tp2460
Rp2461
(I1
(I1
tp2462
g12
I00
S'\x8a`B\xb5\x89\x88r@'
p2463
tp2464
bag2
(g3
(I0
tp2465
g5
tp2466
Rp2467
(I1
(I1
tp2468
g12
I00
S'\xec\xa9\x17E\xd1xr@'
p2469
tp2470
bag2
(g3
(I0
tp2471
g5
tp2472
Rp2473
(I1
(I1
tp2474
g12
I00
S'\xdc,kszhr@'
p2475
tp2476
bag2
(g3
(I0
tp2477
g5
tp2478
Rp2479
(I1
(I1
tp2480
g12
I00
S'\x0bE]~\x84Wr@'
p2481
tp2482
bag2
(g3
(I0
tp2483
g5
tp2484
Rp2485
(I1
(I1
tp2486
g12
I00
S'J\x1e\x04\xae\xeeEr@'
p2487
tp2488
bag2
(g3
(I0
tp2489
g5
tp2490
Rp2491
(I1
(I1
tp2492
g12
I00
S'\xdf\x96\xebS\xb83r@'
p2493
tp2494
bag2
(g3
(I0
tp2495
g5
tp2496
Rp2497
(I1
(I1
tp2498
g12
I00
S'\xe9\x8c\x0b\xcd\xe0 r@'
p2499
tp2500
bag2
(g3
(I0
tp2501
g5
tp2502
Rp2503
(I1
(I1
tp2504
g12
I00
S'\xbbjg\x80g\rr@'
p2505
tp2506
bag2
(g3
(I0
tp2507
g5
tp2508
Rp2509
(I1
(I1
tp2510
g12
I00
S'\x8f&\x1a\xddK\xf9q@'
p2511
tp2512
bag2
(g3
(I0
tp2513
g5
tp2514
Rp2515
(I1
(I1
tp2516
g12
I00
S'XP\t^\x8d\xe4q@'
p2517
tp2518
bag2
(g3
(I0
tp2519
g5
tp2520
Rp2521
(I1
(I1
tp2522
g12
I00
S'\x81\xb4\x1e\x89+\xcfq@'
p2523
tp2524
bag2
(g3
(I0
tp2525
g5
tp2526
Rp2527
(I1
(I1
tp2528
g12
I00
S'Z=\xf1\xef%\xb9q@'
p2529
tp2530
bag2
(g3
(I0
tp2531
g5
tp2532
Rp2533
(I1
(I1
tp2534
g12
I00
S'\x15\xa1\x95,|\xa2q@'
p2535
tp2536
bag2
(g3
(I0
tp2537
g5
tp2538
Rp2539
(I1
(I1
tp2540
g12
I00
S'\xc5]\x8c\xe4-\x8bq@'
p2541
tp2542
bag2
(g3
(I0
tp2543
g5
tp2544
Rp2545
(I1
(I1
tp2546
g12
I00
S'\xab;\xd0\xc8:sq@'
p2547
tp2548
bag2
(g3
(I0
tp2549
g5
tp2550
Rp2551
(I1
(I1
tp2552
g12
I00
S'j\xfc\xdd\x94\xa2Zq@'
p2553
tp2554
bag2
(g3
(I0
tp2555
g5
tp2556
Rp2557
(I1
(I1
tp2558
g12
I00
S'J1H\x0feAq@'
p2559
tp2560
bag2
(g3
(I0
tp2561
g5
tp2562
Rp2563
(I1
(I1
tp2564
g12
I00
S"\xdb7T\x0b\x82'q@"
p2565
tp2566
bag2
(g3
(I0
tp2567
g5
tp2568
Rp2569
(I1
(I1
tp2570
g12
I00
S'\x99H\xb2f\xf9\x0cq@'
p2571
tp2572
bag2
(g3
(I0
tp2573
g5
tp2574
Rp2575
(I1
(I1
tp2576
g12
I00
S'K\xb9X\n\xcb\xf1p@'
p2577
tp2578
bag2
(g3
(I0
tp2579
g5
tp2580
Rp2581
(I1
(I1
tp2582
g12
I00
S'\xae#P\xe9\xf6\xd5p@'
p2583
tp2584
bag2
(g3
(I0
tp2585
g5
tp2586
Rp2587
(I1
(I1
tp2588
g12
I00
S'\xac|\x9e\x05}\xb9p@'
p2589
tp2590
bag2
(g3
(I0
tp2591
g5
tp2592
Rp2593
(I1
(I1
tp2594
g12
I00
S'\xe9@\x9fm]\x9cp@'
p2595
tp2596
bag2
(g3
(I0
tp2597
g5
tp2598
Rp2599
(I1
(I1
tp2600
g12
I00
S'D\xd8\xc59\x98~p@'
p2601
tp2602
bag2
(g3
(I0
tp2603
g5
tp2604
Rp2605
(I1
(I1
tp2606
g12
I00
S'\x18/\x82\x8f-`p@'
p2607
tp2608
bag2
(g3
(I0
tp2609
g5
tp2610
Rp2611
(I1
(I1
tp2612
g12
I00
S'\xb6b\xe9\x9f\x1dAp@'
p2613
tp2614
bag2
(g3
(I0
tp2615
g5
tp2616
Rp2617
(I1
(I1
tp2618
g12
I00
S'8\x01\xf8\xa7h!p@'
p2619
tp2620
bag2
(g3
(I0
tp2621
g5
tp2622
Rp2623
(I1
(I1
tp2624
g12
I00
S'\x0cVp\xf3\x0e\x01p@'
p2625
tp2626
bag2
(g3
(I0
tp2627
g5
tp2628
Rp2629
(I1
(I1
tp2630
g12
I00
S'\xdf\xfc\x12\xb5!\xc0o@'
p2631
tp2632
bag2
(g3
(I0
tp2633
g5
tp2634
Rp2635
(I1
(I1
tp2636
g12
I00
S'e\x94\x11\x84\xdd|o@'
p2637
tp2638
bag2
(g3
(I0
tp2639
g5
tp2640
Rp2641
(I1
(I1
tp2642
g12
I00
S'\xd3\x8e\xf35R8o@'
p2643
tp2644
bag2
(g3
(I0
tp2645
g5
tp2646
Rp2647
(I1
(I1
tp2648
g12
I00
S'B\xf2\xd6\xc2\x80\xf2n@'
p2649
tp2650
bag2
(g3
(I0
tp2651
g5
tp2652
Rp2653
(I1
(I1
tp2654
g12
I00
S'\xe4\xb67Bj\xabn@'
p2655
tp2656
bag2
(g3
(I0
tp2657
g5
tp2658
Rp2659
(I1
(I1
tp2660
g12
I00
S'b\x16\x0e\xe0\x0fcn@'
p2661
tp2662
bag2
(g3
(I0
tp2663
g5
tp2664
Rp2665
(I1
(I1
tp2666
g12
I00
S'c\xc8.\xe5r\x19n@'
p2667
tp2668
bag2
(g3
(I0
tp2669
g5
tp2670
Rp2671
(I1
(I1
tp2672
g12
I00
S'gK}\xb2\x94\xcem@'
p2673
tp2674
bag2
(g3
(I0
tp2675
g5
tp2676
Rp2677
(I1
(I1
tp2678
g12
I00
S'\xb5\x86\xcc\xc0v\x82m@'
p2679
tp2680
bag2
(g3
(I0
tp2681
g5
tp2682
Rp2683
(I1
(I1
tp2684
g12
I00
S'&\xf5\xc0\xa2\x1a5m@'
p2685
tp2686
bag2
(g3
(I0
tp2687
g5
tp2688
Rp2689
(I1
(I1
tp2690
g12
I00
S's5J\x05\x82\xe6l@'
p2691
tp2692
bag2
(g3
(I0
tp2693
g5
tp2694
Rp2695
(I1
(I1
tp2696
g12
I00
S'Q\x18\xf8\xae\xae\x96l@'
p2697
tp2698
bag2
(g3
(I0
tp2699
g5
tp2700
Rp2701
(I1
(I1
tp2702
g12
I00
S'\xbe\xac\xcc\x81\xa2El@'
p2703
tp2704
bag2
(g3
(I0
tp2705
g5
tp2706
Rp2707
(I1
(I1
tp2708
g12
I00
S'\x9d\x8f\x8ey_\xf3k@'
p2709
tp2710
bag2
(g3
(I0
tp2711
g5
tp2712
Rp2713
(I1
(I1
tp2714
g12
I00
S'\xaare\xab\xe7\x9fk@'
p2715
tp2716
bag2
(g3
(I0
tp2717
g5
tp2718
Rp2719
(I1
(I1
tp2720
g12
I00
S'_\xdc\xfcF=Kk@'
p2721
tp2722
bag2
(g3
(I0
tp2723
g5
tp2724
Rp2725
(I1
(I1
tp2726
g12
I00
S'}/y\x93b\xf5j@'
p2727
tp2728
bag2
(g3
(I0
tp2729
g5
tp2730
Rp2731
(I1
(I1
tp2732
g12
I00
S'u\x87)\xf2Y\x9ej@'
p2733
tp2734
bag2
(g3
(I0
tp2735
g5
tp2736
Rp2737
(I1
(I1
tp2738
g12
I00
S'\xf3\xa7d\xda%Fj@'
p2739
tp2740
bag2
(g3
(I0
tp2741
g5
tp2742
Rp2743
(I1
(I1
tp2744
g12
I00
S'\xf0\xab\xfb\xde\xc8\xeci@'
p2745
tp2746
bag2
(g3
(I0
tp2747
g5
tp2748
Rp2749
(I1
(I1
tp2750
g12
I00
S'Q\xcf\x12\xa9E\x92i@'
p2751
tp2752
bag2
(g3
(I0
tp2753
g5
tp2754
Rp2755
(I1
(I1
tp2756
g12
I00
S'~\xf3\x91\xf9\x9e6i@'
p2757
tp2758
bag2
(g3
(I0
tp2759
g5
tp2760
Rp2761
(I1
(I1
tp2762
g12
I00
S'%\xcd\x90\xa3\xd7\xd9h@'
p2763
tp2764
bag2
(g3
(I0
tp2765
g5
tp2766
Rp2767
(I1
(I1
tp2768
g12
I00
S'>w \x92\xf2{h@'
p2769
tp2770
bag2
(g3
(I0
tp2771
g5
tp2772
Rp2773
(I1
(I1
tp2774
g12
I00
S'#8\x85\xc7\xf2\x1ch@'
p2775
tp2776
bag2
(g3
(I0
tp2777
g5
tp2778
Rp2779
(I1
(I1
tp2780
g12
I00
S"\xdd\x8d'[\xdb\xbcg@"
p2781
tp2782
bag2
(g3
(I0
tp2783
g5
tp2784
Rp2785
(I1
(I1
tp2786
g12
I00
S'\x0b\xc2\x03x\xaf[g@'
p2787
tp2788
bag2
(g3
(I0
tp2789
g5
tp2790
Rp2791
(I1
(I1
tp2792
g12
I00
S'\x1bb\\br\xf9f@'
p2793
tp2794
bag2
(g3
(I0
tp2795
g5
tp2796
Rp2797
(I1
(I1
tp2798
g12
I00
S"^\xaa\x18q'\x96f@"
p2799
tp2800
bag2
(g3
(I0
tp2801
g5
tp2802
Rp2803
(I1
(I1
tp2804
g12
I00
S'n\xa4U\t\xd21f@'
p2805
tp2806
bag2
(g3
(I0
tp2807
g5
tp2808
Rp2809
(I1
(I1
tp2810
g12
I00
S'A\x1c`\xa3u\xcce@'
p2811
tp2812
bag2
(g3
(I0
tp2813
g5
tp2814
Rp2815
(I1
(I1
tp2816
g12
I00
S'\xd2\xc1\xe2\xc6\x15fe@'
p2817
tp2818
bag2
(g3
(I0
tp2819
g5
tp2820
Rp2821
(I1
(I1
tp2822
g12
I00
S'mh\x86\x03\xb6\xfed@'
p2823
tp2824
bag2
(g3
(I0
tp2825
g5
tp2826
Rp2827
(I1
(I1
tp2828
g12
I00
S'\xa7\xab\n\xf7Y\x96d@'
p2829
tp2830
bag2
(g3
(I0
tp2831
g5
tp2832
Rp2833
(I1
(I1
tp2834
g12
I00
S'\xce\xde\x0fL\x05-d@'
p2835
tp2836
bag2
(g3
(I0
tp2837
g5
tp2838
Rp2839
(I1
(I1
tp2840
g12
I00
S'\x7f\xc0\xe5\xb4\xbb\xc2c@'
p2841
tp2842
bag2
(g3
(I0
tp2843
g5
tp2844
Rp2845
(I1
(I1
tp2846
g12
I00
S'Y\xee\x0f\xeb\x80Wc@'
p2847
tp2848
bag2
(g3
(I0
tp2849
g5
tp2850
Rp2851
(I1
(I1
tp2852
g12
I00
S'\xf6Pc\xaaX\xebb@'
p2853
tp2854
bag2
(g3
(I0
tp2855
g5
tp2856
Rp2857
(I1
(I1
tp2858
g12
I00
S'N3s\xb2F~b@'
p2859
tp2860
bag2
(g3
(I0
tp2861
g5
tp2862
Rp2863
(I1
(I1
tp2864
g12
I00
S'\x9f\x12\xdd\xc3N\x10b@'
p2865
tp2866
bag2
(g3
(I0
tp2867
g5
tp2868
Rp2869
(I1
(I1
tp2870
g12
I00
S'z\xb6\xdc\x99t\xa1a@'
p2871
tp2872
bag2
(g3
(I0
tp2873
g5
tp2874
Rp2875
(I1
(I1
tp2876
g12
I00
S'\x8c\xbf\xf4\xe8\xbb1a@'
p2877
tp2878
bag2
(g3
(I0
tp2879
g5
tp2880
Rp2881
(I1
(I1
tp2882
g12
I00
S'%=\x84Z(\xc1`@'
p2883
tp2884
bag2
(g3
(I0
tp2885
g5
tp2886
Rp2887
(I1
(I1
tp2888
g12
I00
S'(\x0e\x15\x85\xbdO`@'
p2889
tp2890
bag2
(g3
(I0
tp2891
g5
tp2892
Rp2893
(I1
(I1
tp2894
g12
I00
S'=\x97\xdf\xce\xfd\xba_@'
p2895
tp2896
bag2
(g3
(I0
tp2897
g5
tp2898
Rp2899
(I1
(I1
tp2900
g12
I00
S'g\x867\xd3\xdf\xd4^@'
p2901
tp2902
bag2
(g3
(I0
tp2903
g5
tp2904
Rp2905
(I1
(I1
tp2906
g12
I00
S"\x85\x89Z\xa7'\xed]@"
p2907
tp2908
bag2
(g3
(I0
tp2909
g5
tp2910
Rp2911
(I1
(I1
tp2912
g12
I00
S'\xbb\xba\xd5\x90\xdb\x03]@'
p2913
tp2914
bag2
(g3
(I0
tp2915
g5
tp2916
Rp2917
(I1
(I1
tp2918
g12
I00
S'\xb3\x0f\xedu\x01\x19\\@'
p2919
tp2920
bag2
(g3
(I0
tp2921
g5
tp2922
Rp2923
(I1
(I1
tp2924
g12
I00
S'Pk\xfd\xcc\x9e,[@'
p2925
tp2926
bag2
(g3
(I0
tp2927
g5
tp2928
Rp2929
(I1
(I1
tp2930
g12
I00
S'\x87\x16\xa1\x90\xb8>Z@'
p2931
tp2932
bag2
(g3
(I0
tp2933
g5
tp2934
Rp2935
(I1
(I1
tp2936
g12
I00
S'\xe8\xf9\n+SOY@'
p2937
tp2938
bag2
(g3
(I0
tp2939
g5
tp2940
Rp2941
(I1
(I1
tp2942
g12
I00
S'\xe2%eXr^X@'
p2943
tp2944
bag2
(g3
(I0
tp2945
g5
tp2946
Rp2947
(I1
(I1
tp2948
g12
I00
S'\x7f\xd1k\x11\x19lW@'
p2949
tp2950
bag2
(g3
(I0
tp2951
g5
tp2952
Rp2953
(I1
(I1
tp2954
g12
I00
S'V\x1fDtIxV@'
p2955
tp2956
bag2
(g3
(I0
tp2957
g5
tp2958
Rp2959
(I1
(I1
tp2960
g12
I00
S':)0\xa0\x04\x83U@'
p2961
tp2962
bag2
(g3
(I0
tp2963
g5
tp2964
Rp2965
(I1
(I1
tp2966
g12
I00
S'\x05c\xba\x95J\x8cT@'
p2967
tp2968
bag2
(g3
(I0
tp2969
g5
tp2970
Rp2971
(I1
(I1
tp2972
g12
I00
S'\x81\x9bR\x10\x1a\x94S@'
p2973
tp2974
bag2
(g3
(I0
tp2975
g5
tp2976
Rp2977
(I1
(I1
tp2978
g12
I00
S'\x05\xa1\x0efp\x9aR@'
p2979
tp2980
bag2
(g3
(I0
tp2981
g5
tp2982
Rp2983
(I1
(I1
tp2984
g12
I00
S'Q%\xc3[I\x9fQ@'
p2985
tp2986
bag2
(g3
(I0
tp2987
g5
tp2988
Rp2989
(I1
(I1
tp2990
g12
I00
S'\xf0\xe7\xe1\xfa\x9e\xa2P@'
p2991
tp2992
bag2
(g3
(I0
tp2993
g5
tp2994
Rp2995
(I1
(I1
tp2996
g12
I00
S'\xaf\xd0\xa9\xc6\xd2HO@'
p2997
tp2998
bag2
(g3
(I0
tp2999
g5
tp3000
Rp3001
(I1
(I1
tp3002
g12
I00
S'\x05\xf9\x02M=IM@'
p3003
tp3004
bag2
(g3
(I0
tp3005
g5
tp3006
Rp3007
(I1
(I1
tp3008
g12
I00
S'\xa1\xeb\xee2eFK@'
p3009
tp3010
bag2
(g3
(I0
tp3011
g5
tp3012
Rp3013
(I1
(I1
tp3014
g12
I00
S'aN(i-@I@'
p3015
tp3016
bag2
(g3
(I0
tp3017
g5
tp3018
Rp3019
(I1
(I1
tp3020
g12
I00
S'\xcc\x84w\ro6G@'
p3021
tp3022
bag2
(g3
(I0
tp3023
g5
tp3024
Rp3025
(I1
(I1
tp3026
g12
I00
S'\xec\xf9\x85\xbc\xed(E@'
p3027
tp3028
bag2
(g3
(I0
tp3029
g5
tp3030
Rp3031
(I1
(I1
tp3032
g12
I00
S'\xc1x\xbd\xe4j\x17C@'
p3033
tp3034
bag2
(g3
(I0
tp3035
g5
tp3036
Rp3037
(I1
(I1
tp3038
g12
I00
S'\x93\\\x9d\xa3\xa7\x01A@'
p3039
tp3040
bag2
(g3
(I0
tp3041
g5
tp3042
Rp3043
(I1
(I1
tp3044
g12
I00
S'H\xc4\xcaz\xc9\xce=@'
p3045
tp3046
bag2
(g3
(I0
tp3047
g5
tp3048
Rp3049
(I1
(I1
tp3050
g12
I00
S'\xf4l\x8d)\xc5\x909@'
p3051
tp3052
bag2
(g3
(I0
tp3053
g5
tp3054
Rp3055
(I1
(I1
tp3056
g12
I00
S'\xdc\xcf3E\xc2H5@'
p3057
tp3058
bag2
(g3
(I0
tp3059
g5
tp3060
Rp3061
(I1
(I1
tp3062
g12
I00
S'*\xb40\xdb?\xf60@'
p3063
tp3064
bag2
(g3
(I0
tp3065
g5
tp3066
Rp3067
(I1
(I1
tp3068
g12
I00
S'\xf4\x8f_\x08x1)@'
p3069
tp3070
bag2
(g3
(I0
tp3071
g5
tp3072
Rp3073
(I1
(I1
tp3074
g12
I00
S',\x07\x1d\xa7g_ @'
p3075
tp3076
bag2
(g3
(I0
tp3077
g5
tp3078
Rp3079
(I1
(I1
tp3080
g12
I00
S'\xfd\xf6\xa06\x1a\xd5\r@'
p3081
tp3082
bag2
(g3
(I0
tp3083
g5
tp3084
Rp3085
(I1
(I1
tp3086
g12
I00
S'\xcdXA[Y\xdf\xe8\xbf'
p3087
tp3088
bag2
(g3
(I0
tp3089
g5
tp3090
Rp3091
(I1
(I1
tp3092
g12
I00
S'\t\xc9(\x05\xb3V\x15\xc0'
p3093
tp3094
bag2
(g3
(I0
tp3095
g5
tp3096
Rp3097
(I1
(I1
tp3098
g12
I00
S'\x03\x06\xb1\x87\xf4\xe3#\xc0'
p3099
tp3100
bag2
(g3
(I0
tp3101
g5
tp3102
Rp3103
(I1
(I1
tp3104
g12
I00
S'\xc8C)\xa4\xd88-\xc0'
p3105
tp3106
bag2
(g3
(I0
tp3107
g5
tp3108
Rp3109
(I1
(I1
tp3110
g12
I00
S' \xdatT\x8dU3\xc0'
p3111
tp3112
bag2
(g3
(I0
tp3113
g5
tp3114
Rp3115
(I1
(I1
tp3116
g12
I00
S'\xc4f\x19-\xe9\x1d8\xc0'
p3117
tp3118
bag2
(g3
(I0
tp3119
g5
tp3120
Rp3121
(I1
(I1
tp3122
g12
I00
S'\xe3L\xa2H\r\xf6<\xc0'
p3123
tp3124
bag2
(g3
(I0
tp3125
g5
tp3126
Rp3127
(I1
(I1
tp3128
g12
I00
S'K\x18\x8dWD\xef@\xc0'
p3129
tp3130
bag2
(g3
(I0
tp3131
g5
tp3132
Rp3133
(I1
(I1
tp3134
g12
I00
S'\x15I|\n\xf6kC\xc0'
p3135
tp3136
bag2
(g3
(I0
tp3137
g5
tp3138
Rp3139
(I1
(I1
tp3140
g12
I00
S'#\xe7\x1e\xf6d\xf1E\xc0'
p3141
tp3142
bag2
(g3
(I0
tp3143
g5
tp3144
Rp3145
(I1
(I1
tp3146
g12
I00
S'\r\xb9\xd5:\xdb\x7fH\xc0'
p3147
tp3148
baa.(lp0
(lp1
cnumpy.core.multiarray
_reconstruct
p2
(cnumpy
ndarray
p3
(I0
tp4
S'b'
p5
tp6
Rp7
(I1
(I1
tp8
cnumpy
dtype
p9
(S'f8'
p10
I0
I1
tp11
Rp12
(I3
S'<'
p13
NNNI-1
I-1
I0
tp14
bI00
S'i\xad\x8c4\x03\x93H@'
p15
tp16
bag2
(g3
(I0
tp17
g5
tp18
Rp19
(I1
(I1
tp20
g12
I00
S'\x97\xf4\xb7\xb5\xb7\x9eH@'
p21
tp22
bag2
(g3
(I0
tp23
g5
tp24
Rp25
(I1
(I1
tp26
g12
I00
S'\x143\xa2\xfc\xa8\xaaH@'
p27
tp28
bag2
(g3
(I0
tp29
g5
tp30
Rp31
(I1
(I1
tp32
g12
I00
S'~Z\xefe\xd7\xb6H@'
p33
tp34
bag2
(g3
(I0
tp35
g5
tp36
Rp37
(I1
(I1
tp38
g12
I00
S'\xec\xe5&OC\xc3H@'
p39
tp40
bag2
(g3
(I0
tp41
g5
tp42
Rp43
(I1
(I1
tp44
g12
I00
S'\x88\xdd\xfa\x16\xed\xcfH@'
p45
tp46
bag2
(g3
(I0
tp47
g5
tp48
Rp49
(I1
(I1
tp50
g12
I00
S'\x81y\xbb\x1c\xd5\xdcH@'
p51
tp52
bag2
(g3
(I0
tp53
g5
tp54
Rp55
(I1
(I1
tp56
g12
I00
S'\x1f\x9b`\xc0\xfb\xe9H@'
p57
tp58
bag2
(g3
(I0
tp59
g5
tp60
Rp61
(I1
(I1
tp62
g12
I00
S'\xa5\x02\xc7ba\xf7H@'
p63
tp64
bag2
(g3
(I0
tp65
g5
tp66
Rp67
(I1
(I1
tp68
g12
I00
S':j\xefe\x06\x05I@'
p69
tp70
bag2
(g3
(I0
tp71
g5
tp72
Rp73
(I1
(I1
tp74
g12
I00
S'\x91\xa5\x8c,\xeb\x12I@'
p75
tp76
bag2
(g3
(I0
tp77
g5
tp78
Rp79
(I1
(I1
tp80
g12
I00
S'Q\xc5\x97\x1a\x10!I@'
p81
tp82
bag2
(g3
(I0
tp83
g5
tp84
Rp85
(I1
(I1
tp86
g12
I00
S'z\xda\xb6\x94u/I@'
p87
tp88
bag2
(g3
(I0
tp89
g5
tp90
Rp91
(I1
(I1
tp92
g12
I00
S'\xe7\xf1u\x00\x1c>I@'
p93
tp94
bag2
(g3
(I0
tp95
g5
tp96
Rp97
(I1
(I1
tp98
g12
I00
S'e\xa0\x0c\xc4\x03MI@'
p99
tp100
bag2
(g3
(I0
tp101
g5
tp102
Rp103
(I1
(I1
tp104
g12
I00
S'k\xd7\x9fF-\\I@'
p105
tp106
bag2
(g3
(I0
tp107
g5
tp108
Rp109
(I1
(I1
tp110
g12
I00
S'R\rz\xf0\x98kI@'
p111
tp112
bag2
(g3
(I0
tp113
g5
tp114
Rp115
(I1
(I1
tp116
g12
I00
S'\x95\xbb\xb1*G{I@'
p117
tp118
bag2
(g3
(I0
tp119
g5
tp120
Rp121
(I1
(I1
tp122
g12
I00
S'\x92\xaa\xac_8\x8bI@'
p123
tp124
bag2
(g3
(I0
tp125
g5
tp126
Rp127
(I1
(I1
tp128
g12
I00
S'n\xf60\xfal\x9bI@'
p129
tp130
bag2
(g3
(I0
tp131
g5
tp132
Rp133
(I1
(I1
tp134
g12
I00
S'\xb4\xcf\xece\xe5\xabI@'
p135
tp136
bag2
(g3
(I0
tp137
g5
tp138
Rp139
(I1
(I1
tp140
g12
I00
S'\xa1\xd8f\x0f\xa2\xbcI@'
p141
tp142
bag2
(g3
(I0
tp143
g5
tp144
Rp145
(I1
(I1
tp146
g12
I00
S'\xd9\x95!e\xa3\xcdI@'
p147
tp148
bag2
(g3
(I0
tp149
g5
tp150
Rp151
(I1
(I1
tp152
g12
I00
S'\xd3\x95\x11\xd6\xe9\xdeI@'
p153
tp154
bag2
(g3
(I0
tp155
g5
tp156
Rp157
(I1
(I1
tp158
g12
I00
S'\xee\xd1\xbe\xd1u\xf0I@'
p159
tp160
bag2
(g3
(I0
tp161
g5
tp162
Rp163
(I1
(I1
tp164
g12
I00
S'\xccjP\xc8G\x02J@'
p165
tp166
bag2
(g3
(I0
tp167
g5
tp168
Rp169
(I1
(I1
tp170
g12
I00
S'\xa55`+`\x14J@'
p171
tp172
bag2
(g3
(I0
tp173
g5
tp174
Rp175
(I1
(I1
tp176
g12
I00
S'\xa6FEm\xbf&J@'
p177
tp178
bag2
(g3
(I0
tp179
g5
tp180
Rp181
(I1
(I1
tp182
g12
I00
S'\x8djq\x01f9J@'
p183
tp184
bag2
(g3
(I0
tp185
g5
tp186
Rp187
(I1
(I1
tp188
g12
I00
S'\xd4\xb3<]TLJ@'
p189
tp190
bag2
(g3
(I0
tp191
g5
tp192
Rp193
(I1
(I1
tp194
g12
I00
S'q\x13B\xf7\x8a_J@'
p195
tp196
bag2
(g3
(I0
tp197
g5
tp198
Rp199
(I1
(I1
tp200
g12
I00
S'\xda\x1b\x0eF\nsJ@'
p201
tp202
bag2
(g3
(I0
tp203
g5
tp204
Rp205
(I1
(I1
tp206
g12
I00
S'\x00jN\xc1\xd2\x86J@'
p207
tp208
bag2
(g3
(I0
tp209
g5
tp210
Rp211
(I1
(I1
tp212
g12
I00
S'\x9cm#\xe1\xe4\x9aJ@'
p213
tp214
bag2
(g3
(I0
tp215
g5
tp216
Rp217
(I1
(I1
tp218
g12
I00
S'\x081\xa6\x1eA\xafJ@'
p219
tp220
bag2
(g3
(I0
tp221
g5
tp222
Rp223
(I1
(I1
tp224
g12
I00
S'\x84\x18\xae\xf5\xe7\xc3J@'
p225
tp226
bag2
(g3
(I0
tp227
g5
tp228
Rp229
(I1
(I1
tp230
g12
I00
S'p\xee\xb4\xe1\xd9\xd8J@'
p231
tp232
bag2
(g3
(I0
tp233
g5
tp234
Rp235
(I1
(I1
tp236
g12
I00
S'U$\xe5^\x17\xeeJ@'
p237
tp238
bag2
(g3
(I0
tp239
g5
tp240
Rp241
(I1
(I1
tp242
g12
I00
S'\x8ak<\xea\xa0\x03K@'
p243
tp244
bag2
(g3
(I0
tp245
g5
tp246
Rp247
(I1
(I1
tp248
g12
I00
S'\xa4\xd3\x92\x03w\x19K@'
p249
tp250
bag2
(g3
(I0
tp251
g5
tp252
Rp253
(I1
(I1
tp254
g12
I00
S'\x96\xff=+\x9a/K@'
p255
tp256
bag2
(g3
(I0
tp257
g5
tp258
Rp259
(I1
(I1
tp260
g12
I00
S'\xe5\xc8K\xe1\nFK@'
p261
tp262
bag2
(g3
(I0
tp263
g5
tp264
Rp265
(I1
(I1
tp266
g12
I00
S'\xa8\xaa\xda\xa6\xc9\\K@'
p267
tp268
bag2
(g3
(I0
tp269
g5
tp270
Rp271
(I1
(I1
tp272
g12
I00
S'>\x86\x10\x00\xd7sK@'
p273
tp274
bag2
(g3
(I0
tp275
g5
tp276
Rp277
(I1
(I1
tp278
g12
I00
S'\xb0\xe7\x00q3\x8bK@'
p279
tp280
bag2
(g3
(I0
tp281
g5
tp282
Rp283
(I1
(I1
tp284
g12
I00
S'\xaa\xbc\xb9}\xdf\xa2K@'
p285
tp286
bag2
(g3
(I0
tp287
g5
tp288
Rp289
(I1
(I1
tp290
g12
I00
S'\xd9\xc0`\xab\xdb\xbaK@'
p291
tp292
bag2
(g3
(I0
tp293
g5
tp294
Rp295
(I1
(I1
tp296
g12
I00
S'cj\x8c\x82(\xd3K@'
p297
tp298
bag2
(g3
(I0
tp299
g5
tp300
Rp301
(I1
(I1
tp302
g12
I00
S'\xee{o\x8a\xc6\xebK@'
p303
tp304
bag2
(g3
(I0
tp305
g5
tp306
Rp307
(I1
(I1
tp308
g12
I00
S'TM\xefJ\xb6\x04L@'
p309
tp310
bag2
(g3
(I0
tp311
g5
tp312
Rp313
(I1
(I1
tp314
g12
I00
S'\x9c\x1a\x99O\xf8\x1dL@'
p315
tp316
bag2
(g3
(I0
tp317
g5
tp318
Rp319
(I1
(I1
tp320
g12
I00
S'W\xc7`"\x8d7L@'
p321
tp322
bag2
(g3
(I0
tp323
g5
tp324
Rp325
(I1
(I1
tp326
g12
I00
S'\r[qNuQL@'
p327
tp328
bag2
(g3
(I0
tp329
g5
tp330
Rp331
(I1
(I1
tp332
g12
I00
S'\xbd;"b\xb1kL@'
p333
tp334
bag2
(g3
(I0
tp335
g5
tp336
Rp337
(I1
(I1
tp338
g12
I00
S'\x0f\x8dT\xebA\x86L@'
p339
tp340
bag2
(g3
(I0
tp341
g5
tp342
Rp343
(I1
(I1
tp344
g12
I00
S"\x01)\xd8w'\xa1L@"
p345
tp346
bag2
(g3
(I0
tp347
g5
tp348
Rp349
(I1
(I1
tp350
g12
I00
S'7\xb5v\x99b\xbcL@'
p351
tp352
bag2
(g3
(I0
tp353
g5
tp354
Rp355
(I1
(I1
tp356
g12
I00
S' \xb3\xd0\xe0\xf3\xd7L@'
p357
tp358
bag2
(g3
(I0
tp359
g5
tp360
Rp361
(I1
(I1
tp362
g12
I00
S'\xa9\x94@\xdf\xdb\xf3L@'
p363
tp364
bag2
(g3
(I0
tp365
g5
tp366
Rp367
(I1
(I1
tp368
g12
I00
S'\xcbJ\x99*\x1b\x10M@'
p369
tp370
bag2
(g3
(I0
tp371
g5
tp372
Rp373
(I1
(I1
tp374
g12
I00
S'\xf1N\xf8U\xb2,M@'
p375
tp376
bag2
(g3
(I0
tp377
g5
tp378
Rp379
(I1
(I1
tp380
g12
I00
S'\x85\x92y\xf6\xa1IM@'
p381
tp382
bag2
(g3
(I0
tp383
g5
tp384
Rp385
(I1
(I1
tp386
g12
I00
S'\xea\xcaF\xa4\xeafM@'
p387
tp388
bag2
(g3
(I0
tp389
g5
tp390
Rp391
(I1
(I1
tp392
g12
I00
S'\x82\x873\xf5\x8c\x84M@'
p393
tp394
bag2
(g3
(I0
tp395
g5
tp396
Rp397
(I1
(I1
tp398
g12
I00
S'\xc3)4\x82\x89\xa2M@'
p399
tp400
bag2
(g3
(I0
tp401
g5
tp402
Rp403
(I1
(I1
tp404
g12
I00
S'\xe7\x9b\t\xe5\xe0\xc0M@'
p405
tp406
bag2
(g3
(I0
tp407
g5
tp408
Rp409
(I1
(I1
tp410
g12
I00
S'\x07\xb1\x03\xb7\x93\xdfM@'
p411
tp412
bag2
(g3
(I0
tp413
g5
tp414
Rp415
(I1
(I1
tp416
g12
I00
S'\xe5/)\x96\xa2\xfeM@'
p417
tp418
bag2
(g3
(I0
tp419
g5
tp420
Rp421
(I1
(I1
tp422
g12
I00
S'\xd8Ok\x1d\x0e\x1eN@'
p423
tp424
bag2
(g3
(I0
tp425
g5
tp426
Rp427
(I1
(I1
tp428
g12
I00
S'tx\xa1\xea\xd6=N@'
p429
tp430
bag2
(g3
(I0
tp431
g5
tp432
Rp433
(I1
(I1
tp434
g12
I00
S'$\xcbf\x9c\xfd]N@'
p435
tp436
bag2
(g3
(I0
tp437
g5
tp438
Rp439
(I1
(I1
tp440
g12
I00
S'l6\xb4\xd0\x82~N@'
p441
tp442
bag2
(g3
(I0
tp443
g5
tp444
Rp445
(I1
(I1
tp446
g12
I00
S'\x01a3*g\x9fN@'
p447
tp448
bag2
(g3
(I0
tp449
g5
tp450
Rp451
(I1
(I1
tp452
g12
I00
S'B\xc8\xbaH\xab\xc0N@'
p453
tp454
bag2
(g3
(I0
tp455
g5
tp456
Rp457
(I1
(I1
tp458
g12
I00
S'nm\xb4\xcfO\xe2N@'
p459
tp460
bag2
(g3
(I0
tp461
g5
tp462
Rp463
(I1
(I1
tp464
g12
I00
S'\xb8\xe8DbU\x04O@'
p465
tp466
bag2
(g3
(I0
tp467
g5
tp468
Rp469
(I1
(I1
tp470
g12
I00
S'\xdcv\xf2\xa3\xbc&O@'
p471
tp472
bag2
(g3
(I0
tp473
g5
tp474
Rp475
(I1
(I1
tp476
g12
I00
S'\x12\x98\x01;\x86IO@'
p477
tp478
bag2
(g3
(I0
tp479
g5
tp480
Rp481
(I1
(I1
tp482
g12
I00
S'a\x1d\x94\xcb\xb2lO@'
p483
tp484
bag2
(g3
(I0
tp485
g5
tp486
Rp487
(I1
(I1
tp488
g12
I00
S'\x85\xf1\xf0\xfeB\x90O@'
p489
tp490
bag2
(g3
(I0
tp491
g5
tp492
Rp493
(I1
(I1
tp494
g12
I00
S'\xfd\xd1V{7\xb4O@'
p495
tp496
bag2
(g3
(I0
tp497
g5
tp498
Rp499
(I1
(I1
tp500
g12
I00
S'\xcd\xc8\x8e\xea\x90\xd8O@'
p501
tp502
bag2
(g3
(I0
tp503
g5
tp504
Rp505
(I1
(I1
tp506
g12
I00
S'S%\xc3\xf6O\xfdO@'
p507
tp508
bag2
(g3
(I0
tp509
g5
tp510
Rp511
(I1
(I1
tp512
g12
I00
S'\xd80\x14\xa5:\x11P@'
p513
tp514
bag2
(g3
(I0
tp515
g5
tp516
Rp517
(I1
(I1
tp518
g12
I00
S'\x9b\xe3\r\xc9\x00$P@'
p519
tp520
bag2
(g3
(I0
tp521
g5
tp522
Rp523
(I1
(I1
tp524
g12
I00
S'm\xcf\xc4\xbc\xfa6P@'
p525
tp526
bag2
(g3
(I0
tp527
g5
tp528
Rp529
(I1
(I1
tp530
g12
I00
S'\x1eY.\xd8(JP@'
p531
tp532
bag2
(g3
(I0
tp533
g5
tp534
Rp535
(I1
(I1
tp536
g12
I00
S'\x162\xf6q\x8b]P@'
p537
tp538
bag2
(g3
(I0
tp539
g5
tp540
Rp541
(I1
(I1
tp542
g12
I00
S'\xc7D\x07\xe2"qP@'
p543
tp544
bag2
(g3
(I0
tp545
g5
tp546
Rp547
(I1
(I1
tp548
g12
I00
S'\x078?\x80\xef\x84P@'
p549
tp550
bag2
(g3
(I0
tp551
g5
tp552
Rp553
(I1
(I1
tp554
g12
I00
S'|\x12\xb5\xa4\xf1\x98P@'
p555
tp556
bag2
(g3
(I0
tp557
g5
tp558
Rp559
(I1
(I1
tp560
g12
I00
S'E{\x12\xa9)\xadP@'
p561
tp562
bag2
(g3
(I0
tp563
g5
tp564
Rp565
(I1
(I1
tp566
g12
I00
S'\xba\xf9\xa2\xe5\x97\xc1P@'
p567
tp568
bag2
(g3
(I0
tp569
g5
tp570
Rp571
(I1
(I1
tp572
g12
I00
S'\xd2\n\t\xb5<\xd6P@'
p573
tp574
bag2
(g3
(I0
tp575
g5
tp576
Rp577
(I1
(I1
tp578
g12
I00
S'\x06hGp\x18\xebP@'
p579
tp580
bag2
(g3
(I0
tp581
g5
tp582
Rp583
(I1
(I1
tp584
g12
I00
S'\x9c\x8b\xfdq+\x00Q@'
p585
tp586
bag2
(g3
(I0
tp587
g5
tp588
Rp589
(I1
(I1
tp590
g12
I00
S'E\xa8\xfe\x14v\x15Q@'
p591
tp592
bag2
(g3
(I0
tp593
g5
tp594
Rp595
(I1
(I1
tp596
g12
I00
S'\x9e\x8b\xf9\xb3\xf8*Q@'
p597
tp598
bag2
(g3
(I0
tp599
g5
tp600
Rp601
(I1
(I1
tp602
g12
I00
S'teI\xab\xb3@Q@'
p603
tp604
bag2
(g3
(I0
tp605
g5
tp606
Rp607
(I1
(I1
tp608
g12
I00
S'q\xfczU\xa7VQ@'
p609
tp610
bag2
(g3
(I0
tp611
g5
tp612
Rp613
(I1
(I1
tp614
g12
I00
S'!\x9fS\x0f\xd4lQ@'
p615
tp616
bag2
(g3
(I0
tp617
g5
tp618
Rp619
(I1
(I1
tp620
g12
I00
S'\x88\xdf\xff4:\x83Q@'
p621
tp622
bag2
(g3
(I0
tp623
g5
tp624
Rp625
(I1
(I1
tp626
g12
I00
S'\xb5\x06\x9f"\xda\x99Q@'
p627
tp628
bag2
(g3
(I0
tp629
g5
tp630
Rp631
(I1
(I1
tp632
g12
I00
S'\x1c!\x106\xb4\xb0Q@'
p633
tp634
bag2
(g3
(I0
tp635
g5
tp636
Rp637
(I1
(I1
tp638
g12
I00
S'\x1f\xe5\xd5\xcb\xc8\xc7Q@'
p639
tp640
bag2
(g3
(I0
tp641
g5
tp642
Rp643
(I1
(I1
tp644
g12
I00
S'\x00e\x07B\x18\xdfQ@'
p645
tp646
bag2
(g3
(I0
tp647
g5
tp648
Rp649
(I1
(I1
tp650
g12
I00
S'@}^\xf6\xa2\xf6Q@'
p651
tp652
bag2
(g3
(I0
tp653
g5
tp654
Rp655
(I1
(I1
tp656
g12
I00
S'\x1f\x13,Fi\x0eR@'
p657
tp658
bag2
(g3
(I0
tp659
g5
tp660
Rp661
(I1
(I1
tp662
g12
I00
S'\xaa[\xd7\x90k&R@'
p663
tp664
bag2
(g3
(I0
tp665
g5
tp666
Rp667
(I1
(I1
tp668
g12
I00
S'L,\x983\xaa>R@'
p669
tp670
bag2
(g3
(I0
tp671
g5
tp672
Rp673
(I1
(I1
tp674
g12
I00
S'!\x16\xc3\x8c%WR@'
p675
tp676
bag2
(g3
(I0
tp677
g5
tp678
Rp679
(I1
(I1
tp680
g12
I00
S'\xe5\x0b\x88\xfb\xddoR@'
p681
tp682
bag2
(g3
(I0
tp683
g5
tp684
Rp685
(I1
(I1
tp686
g12
I00
S'\xf4d\r\xde\xd3\x88R@'
p687
tp688
bag2
(g3
(I0
tp689
g5
tp690
Rp691
(I1
(I1
tp692
g12
I00
S'\xdb\xba\x19\x93\x07\xa2R@'
p693
tp694
bag2
(g3
(I0
tp695
g5
tp696
Rp697
(I1
(I1
tp698
g12
I00
S'\xbb\x1e\xc6yy\xbbR@'
p699
tp700
bag2
(g3
(I0
tp701
g5
tp702
Rp703
(I1
(I1
tp704
g12
I00
S'\xfe\xa2c\xf0)\xd5R@'
p705
tp706
bag2
(g3
(I0
tp707
g5
tp708
Rp709
(I1
(I1
tp710
g12
I00
S'\xb8\xf8\xdaU\x19\xefR@'
p711
tp712
bag2
(g3
(I0
tp713
g5
tp714
Rp715
(I1
(I1
tp716
g12
I00
S'(Y\x9d\tH\tS@'
p717
tp718
bag2
(g3
(I0
tp719
g5
tp720
Rp721
(I1
(I1
tp722
g12
I00
S'\xedF6j\xb6#S@'
p723
tp724
bag2
(g3
(I0
tp725
g5
tp726
Rp727
(I1
(I1
tp728
g12
I00
S'x\xbcd\xd6d>S@'
p729
tp730
bag2
(g3
(I0
tp731
g5
tp732
Rp733
(I1
(I1
tp734
g12
I00
S'Hoo\xaeSYS@'
p735
tp736
bag2
(g3
(I0
tp737
g5
tp738
Rp739
(I1
(I1
tp740
g12
I00
S'\xc4$\xcaP\x83tS@'
p741
tp742
bag2
(g3
(I0
tp743
g5
tp744
Rp745
(I1
(I1
tp746
g12
I00
S'\x1fy\x0f\x1c\xf4\x8fS@'
p747
tp748
bag2
(g3
(I0
tp749
g5
tp750
Rp751
(I1
(I1
tp752
g12
I00
S'\x00\xb4Ao\xa6\xabS@'
p753
tp754
bag2
(g3
(I0
tp755
g5
tp756
Rp757
(I1
(I1
tp758
g12
I00
S'!\x99\xb2\xa9\x9a\xc7S@'
p759
tp760
bag2
(g3
(I0
tp761
g5
tp762
Rp763
(I1
(I1
tp764
g12
I00
S'\x0e\x90\x96)\xd1\xe3S@'
p765
tp766
bag2
(g3
(I0
tp767
g5
tp768
Rp769
(I1
(I1
tp770
g12
I00
S'\xe2g?MJ\x00T@'
p771
tp772
bag2
(g3
(I0
tp773
g5
tp774
Rp775
(I1
(I1
tp776
g12
I00
S'\x03\xe9\xd6r\x06\x1dT@'
p777
tp778
bag2
(g3
(I0
tp779
g5
tp780
Rp781
(I1
(I1
tp782
g12
I00
S'\xf9v7\xf9\x05:T@'
p783
tp784
bag2
(g3
(I0
tp785
g5
tp786
Rp787
(I1
(I1
tp788
g12
I00
S'D3\x04>IWT@'
p789
tp790
bag2
(g3
(I0
tp791
g5
tp792
Rp793
(I1
(I1
tp794
g12
I00
S'\xden\xaa\x9e\xd0tT@'
p795
tp796
bag2
(g3
(I0
tp797
g5
tp798
Rp799
(I1
(I1
tp800
g12
I00
S'E\x90\x13x\x9c\x92T@'
p801
tp802
bag2
(g3
(I0
tp803
g5
tp804
Rp805
(I1
(I1
tp806
g12
I00
S'1e\xf7&\xad\xb0T@'
p807
tp808
bag2
(g3
(I0
tp809
g5
tp810
Rp811
(I1
(I1
tp812
g12
I00
S'\xf1\xe4\xd8\x07\x03\xcfT@'
p813
tp814
bag2
(g3
(I0
tp815
g5
tp816
Rp817
(I1
(I1
tp818
g12
I00
S'\x15TFw\x9e\xedT@'
p819
tp820
bag2
(g3
(I0
tp821
g5
tp822
Rp823
(I1
(I1
tp824
g12
I00
S'\xab3\xcd\xd0\x7f\x0cU@'
p825
tp826
bag2
(g3
(I0
tp827
g5
tp828
Rp829
(I1
(I1
tp830
g12
I00
S'^\x04\xado\xa7+U@'
p831
tp832
bag2
(g3
(I0
tp833
g5
tp834
Rp835
(I1
(I1
tp836
g12
I00
S'\x0e\xab\xc1\xae\x15KU@'
p837
tp838
bag2
(g3
(I0
tp839
g5
tp840
Rp841
(I1
(I1
tp842
g12
I00
S'\x12\xdd<\xe8\xcajU@'
p843
tp844
bag2
(g3
(I0
tp845
g5
tp846
Rp847
(I1
(I1
tp848
g12
I00
S'l1\xe0u\xc7\x8aU@'
p849
tp850
bag2
(g3
(I0
tp851
g5
tp852
Rp853
(I1
(I1
tp854
g12
I00
S':\xf2\xe2\xb0\x0b\xabU@'
p855
tp856
bag2
(g3
(I0
tp857
g5
tp858
Rp859
(I1
(I1
tp860
g12
I00
S'W\xdb\xd0\xf1\x97\xcbU@'
p861
tp862
bag2
(g3
(I0
tp863
g5
tp864
Rp865
(I1
(I1
tp866
g12
I00
S'~\xeb\x9a\x90l\xecU@'
p867
tp868
bag2
(g3
(I0
tp869
g5
tp870
Rp871
(I1
(I1
tp872
g12
I00
S'n!\x0e\xe4\x89\rV@'
p873
tp874
bag2
(g3
(I0
tp875
g5
tp876
Rp877
(I1
(I1
tp878
g12
I00
S'\x915ZB\xf0.V@'
p879
tp880
bag2
(g3
(I0
tp881
g5
tp882
Rp883
(I1
(I1
tp884
g12
I00
S'\xd0\x80\x03\x01\xa0PV@'
p885
tp886
bag2
(g3
(I0
tp887
g5
tp888
Rp889
(I1
(I1
tp890
g12
I00
S'\xca5zt\x99rV@'
p891
tp892
bag2
(g3
(I0
tp893
g5
tp894
Rp895
(I1
(I1
tp896
g12
I00
S'm\x84B\xf0\xdc\x94V@'
p897
tp898
bag2
(g3
(I0
tp899
g5
tp900
Rp901
(I1
(I1
tp902
g12
I00
S'M\x0f \xc7j\xb7V@'
p903
tp904
bag2
(g3
(I0
tp905
g5
tp906
Rp907
(I1
(I1
tp908
g12
I00
S'4F KC\xdaV@'
p909
tp910
bag2
(g3
(I0
tp911
g5
tp912
Rp913
(I1
(I1
tp914
g12
I00
S'-\xa7\xdb\xcdf\xfdV@'
p915
tp916
bag2
(g3
(I0
tp917
g5
tp918
Rp919
(I1
(I1
tp920
g12
I00
S'P\x9a\xc8\x9e\xd5 W@'
p921
tp922
bag2
(g3
(I0
tp923
g5
tp924
Rp925
(I1
(I1
tp926
g12
I00
S'\xd7Xj\x0c\x90DW@'
p927
tp928
bag2
(g3
(I0
tp929
g5
tp930
Rp931
(I1
(I1
tp932
g12
I00
S'\xef\x1dTd\x96hW@'
p933
tp934
bag2
(g3
(I0
tp935
g5
tp936
Rp937
(I1
(I1
tp938
g12
I00
S'\x94O\xb9\xf2\xe8\x8cW@'
p939
tp940
bag2
(g3
(I0
tp941
g5
tp942
Rp943
(I1
(I1
tp944
g12
I00
S'\xb2)\xcd\x03\x88\xb1W@'
p945
tp946
bag2
(g3
(I0
tp947
g5
tp948
Rp949
(I1
(I1
tp950
g12
I00
S'\x9e\xbc\xf5\xe0s\xd6W@'
p951
tp952
bag2
(g3
(I0
tp953
g5
tp954
Rp955
(I1
(I1
tp956
g12
I00
S'|-\xfc\xd1\xac\xfbW@'
p957
tp958
bag2
(g3
(I0
tp959
g5
tp960
Rp961
(I1
(I1
tp962
g12
I00
S'$L\x89\x1e3!X@'
p963
tp964
bag2
(g3
(I0
tp965
g5
tp966
Rp967
(I1
(I1
tp968
g12
I00
S':fa\x0c\x07GX@'
p969
tp970
bag2
(g3
(I0
tp971
g5
tp972
Rp973
(I1
(I1
tp974
g12
I00
S'\x05\xf8\xdd\xde(mX@'
p975
tp976
bag2
(g3
(I0
tp977
g5
tp978
Rp979
(I1
(I1
tp980
g12
I00
S'\xc4\xdc\x96\xd9\x98\x93X@'
p981
tp982
bag2
(g3
(I0
tp983
g5
tp984
Rp985
(I1
(I1
tp986
g12
I00
S'\xc9R\xa1<W\xbaX@'
p987
tp988
bag2
(g3
(I0
tp989
g5
tp990
Rp991
(I1
(I1
tp992
g12
I00
S'\xbc\xfbHGd\xe1X@'
p993
tp994
bag2
(g3
(I0
tp995
g5
tp996
Rp997
(I1
(I1
tp998
g12
I00
S'\x1a\xbdx7\xc0\x08Y@'
p999
tp1000
bag2
(g3
(I0
tp1001
g5
tp1002
Rp1003
(I1
(I1
tp1004
g12
I00
S'\xabx\xbeHk0Y@'
p1005
tp1006
bag2
(g3
(I0
tp1007
g5
tp1008
Rp1009
(I1
(I1
tp1010
g12
I00
S'\x81\xd5$\xb5eXY@'
p1011
tp1012
bag2
(g3
(I0
tp1013
g5
tp1014
Rp1015
(I1
(I1
tp1016
g12
I00
S'\t:\x0c\xb5\xaf\x80Y@'
p1017
tp1018
bag2
(g3
(I0
tp1019
g5
tp1020
Rp1021
(I1
(I1
tp1022
g12
I00
S'\xff\xc9G~I\xa9Y@'
p1023
tp1024
bag2
(g3
(I0
tp1025
g5
tp1026
Rp1027
(I1
(I1
tp1028
g12
I00
S'\xc8\x90]F3\xd2Y@'
p1029
tp1030
bag2
(g3
(I0
tp1031
g5
tp1032
Rp1033
(I1
(I1
tp1034
g12
I00
S'|\x94d>m\xfbY@'
p1035
tp1036
bag2
(g3
(I0
tp1037
g5
tp1038
Rp1039
(I1
(I1
tp1040
g12
I00
S'y\xb9\xb0\x96\xf7$Z@'
p1041
tp1042
bag2
(g3
(I0
tp1043
g5
tp1044
Rp1045
(I1
(I1
tp1046
g12
I00
S'\x07\x9f\x84}\xd2NZ@'
p1047
tp1048
bag2
(g3
(I0
tp1049
g5
tp1050
Rp1051
(I1
(I1
tp1052
g12
I00
S'\x9e6\xb6\x1d\xfexZ@'
p1053
tp1054
bag2
(g3
(I0
tp1055
g5
tp1056
Rp1057
(I1
(I1
tp1058
g12
I00
S'(\x1f\x05\xa0z\xa3Z@'
p1059
tp1060
bag2
(g3
(I0
tp1061
g5
tp1062
Rp1063
(I1
(I1
tp1064
g12
I00
S'H\xd0\x0f,H\xceZ@'
p1065
tp1066
bag2
(g3
(I0
tp1067
g5
tp1068
Rp1069
(I1
(I1
tp1070
g12
I00
S'&\x19Y\xe6f\xf9Z@'
p1071
tp1072
bag2
(g3
(I0
tp1073
g5
tp1074
Rp1075
(I1
(I1
tp1076
g12
I00
S'/\x06w\xf0\xd6$[@'
p1077
tp1078
bag2
(g3
(I0
tp1079
g5
tp1080
Rp1081
(I1
(I1
tp1082
g12
I00
S'0\xf3vi\x98P[@'
p1083
tp1084
bag2
(g3
(I0
tp1085
g5
tp1086
Rp1087
(I1
(I1
tp1088
g12
I00
S'\x1eC\xd6m\xab|[@'
p1089
tp1090
bag2
(g3
(I0
tp1091
g5
tp1092
Rp1093
(I1
(I1
tp1094
g12
I00
S'7\xb0e\x17\x10\xa9[@'
p1095
tp1096
bag2
(g3
(I0
tp1097
g5
tp1098
Rp1099
(I1
(I1
tp1100
g12
I00
S'&\x834}\xc6\xd5[@'
p1101
tp1102
bag2
(g3
(I0
tp1103
g5
tp1104
Rp1105
(I1
(I1
tp1106
g12
I00
S'\xca\xe2q\xb3\xce\x02\\@'
p1107
tp1108
bag2
(g3
(I0
tp1109
g5
tp1110
Rp1111
(I1
(I1
tp1112
g12
I00
S'\xff\xa3*\xcb(0\\@'
p1113
tp1114
bag2
(g3
(I0
tp1115
g5
tp1116
Rp1117
(I1
(I1
tp1118
g12
I00
S'#7G\xd2\xd4]\\@'
p1119
tp1120
bag2
(g3
(I0
tp1121
g5
tp1122
Rp1123
(I1
(I1
tp1124
g12
I00
S'&\x00\x89\xd3\xd2\x8b\\@'
p1125
tp1126
bag2
(g3
(I0
tp1127
g5
tp1128
Rp1129
(I1
(I1
tp1130
g12
I00
S'\xcaey\xd6"\xba\\@'
p1131
tp1132
bag2
(g3
(I0
tp1133
g5
tp1134
Rp1135
(I1
(I1
tp1136
g12
I00
S'T\xa3\xda\xdf\xc4\xe8\\@'
p1137
tp1138
bag2
(g3
(I0
tp1139
g5
tp1140
Rp1141
(I1
(I1
tp1142
g12
I00
S'\xd2\xef\x9c\xf1\xb8\x17]@'
p1143
tp1144
bag2
(g3
(I0
tp1145
g5
tp1146
Rp1147
(I1
(I1
tp1148
g12
I00
S'I[\x12\t\xffF]@'
p1149
tp1150
bag2
(g3
(I0
tp1151
g5
tp1152
Rp1153
(I1
(I1
tp1154
g12
I00
S'\x90\x19\xd7\x1f\x97v]@'
p1155
tp1156
bag2
(g3
(I0
tp1157
g5
tp1158
Rp1159
(I1
(I1
tp1160
g12
I00
S'fR\xd3-\x81\xa6]@'
p1161
tp1162
bag2
(g3
(I0
tp1163
g5
tp1164
Rp1165
(I1
(I1
tp1166
g12
I00
S'V\xf3\xbf%\xbd\xd6]@'
p1167
tp1168
bag2
(g3
(I0
tp1169
g5
tp1170
Rp1171
(I1
(I1
tp1172
g12
I00
S'?\xd4[\xf6J\x07^@'
p1173
tp1174
bag2
(g3
(I0
tp1175
g5
tp1176
Rp1177
(I1
(I1
tp1178
g12
I00
S'V\x8d#\x8c*8^@'
p1179
tp1180
bag2
(g3
(I0
tp1181
g5
tp1182
Rp1183
(I1
(I1
tp1184
g12
I00
S'.8\xb9\xcd[i^@'
p1185
tp1186
bag2
(g3
(I0
tp1187
g5
tp1188
Rp1189
(I1
(I1
tp1190
g12
I00
S';\xaa\xb6\x9f\xde\x9a^@'
p1191
tp1192
bag2
(g3
(I0
tp1193
g5
tp1194
Rp1195
(I1
(I1
tp1196
g12
I00
S'O\xcf*\xe1\xb2\xcc^@'
p1197
tp1198
bag2
(g3
(I0
tp1199
g5
tp1200
Rp1201
(I1
(I1
tp1202
g12
I00
S'\xefN\x1dm\xd8\xfe^@'
p1203
tp1204
bag2
(g3
(I0
tp1205
g5
tp1206
Rp1207
(I1
(I1
tp1208
g12
I00
S'\xcf\xed\xd7\x1bO1_@'
p1209
tp1210
bag2
(g3
(I0
tp1211
g5
tp1212
Rp1213
(I1
(I1
tp1214
g12
I00
S'Z\x80|\xbf\x16d_@'
p1215
tp1216
bag2
(g3
(I0
tp1217
g5
tp1218
Rp1219
(I1
(I1
tp1220
g12
I00
S'\x16w\n&/\x97_@'
p1221
tp1222
bag2
(g3
(I0
tp1223
g5
tp1224
Rp1225
(I1
(I1
tp1226
g12
I00
S'\x13\x06\xe4\x19\x98\xca_@'
p1227
tp1228
bag2
(g3
(I0
tp1229
g5
tp1230
Rp1231
(I1
(I1
tp1232
g12
I00
S',]\xec`Q\xfe_@'
p1233
tp1234
bag2
(g3
(I0
tp1235
g5
tp1236
Rp1237
(I1
(I1
tp1238
g12
I00
S'\x98\xfd\xcc]-\x19`@'
p1239
tp1240
bag2
(g3
(I0
tp1241
g5
tp1242
Rp1243
(I1
(I1
tp1244
g12
I00
S'jg\xde\xf2Y3`@'
p1245
tp1246
bag2
(g3
(I0
tp1247
g5
tp1248
Rp1249
(I1
(I1
tp1250
g12
I00
S'FX#K\xaeM`@'
p1251
tp1252
bag2
(g3
(I0
tp1253
g5
tp1254
Rp1255
(I1
(I1
tp1256
g12
I00
S'[\xa0\xa0?*h`@'
p1257
tp1258
bag2
(g3
(I0
tp1259
g5
tp1260
Rp1261
(I1
(I1
tp1262
g12
I00
S'\x1fT\xd5\xa6\xcd\x82`@'
p1263
tp1264
bag2
(g3
(I0
tp1265
g5
tp1266
Rp1267
(I1
(I1
tp1268
g12
I00
S'Nc\xa2T\x98\x9d`@'
p1269
tp1270
bag2
(g3
(I0
tp1271
g5
tp1272
Rp1273
(I1
(I1
tp1274
g12
I00
S'\x18q\x86\x1a\x8a\xb8`@'
p1275
tp1276
bag2
(g3
(I0
tp1277
g5
tp1278
Rp1279
(I1
(I1
tp1280
g12
I00
S'\x15\xa1\x9b\xc7\xa2\xd3`@'
p1281
tp1282
bag2
(g3
(I0
tp1283
g5
tp1284
Rp1285
(I1
(I1
tp1286
g12
I00
S"\xb1\xa7\xaf'\xe2\xee`@"
p1287
tp1288
bag2
(g3
(I0
tp1289
g5
tp1290
Rp1291
(I1
(I1
tp1292
g12
I00
S'Y_\xa4\x03H\na@'
p1293
tp1294
bag2
(g3
(I0
tp1295
g5
tp1296
Rp1297
(I1
(I1
tp1298
g12
I00
S'F\xee{"\xd4%a@'
p1299
tp1300
bag2
(g3
(I0
tp1301
g5
tp1302
Rp1303
(I1
(I1
tp1304
g12
I00
S'\xb0\x9c\xaaG\x86Aa@'
p1305
tp1306
bag2
(g3
(I0
tp1307
g5
tp1308
Rp1309
(I1
(I1
tp1310
g12
I00
S'Xu\xc63^]a@'
p1311
tp1312
bag2
(g3
(I0
tp1313
g5
tp1314
Rp1315
(I1
(I1
tp1316
g12
I00
S'7\x0b\xec\xa4[ya@'
p1317
tp1318
bag2
(g3
(I0
tp1319
g5
tp1320
Rp1321
(I1
(I1
tp1322
g12
I00
S'\xcf\xba\xc2U~\x95a@'
p1323
tp1324
bag2
(g3
(I0
tp1325
g5
tp1326
Rp1327
(I1
(I1
tp1328
g12
I00
S'E\xd3\xed\xfd\xc5\xb1a@'
p1329
tp1330
bag2
(g3
(I0
tp1331
g5
tp1332
Rp1333
(I1
(I1
tp1334
g12
I00
S'c\xa6\xb2R2\xcea@'
p1335
tp1336
bag2
(g3
(I0
tp1337
g5
tp1338
Rp1339
(I1
(I1
tp1340
g12
I00
S':\xc6I\x05\xc3\xeaa@'
p1341
tp1342
bag2
(g3
(I0
tp1343
g5
tp1344
Rp1345
(I1
(I1
tp1346
g12
I00
S'j]\xec\xc3w\x07b@'
p1347
tp1348
bag2
(g3
(I0
tp1349
g5
tp1350
Rp1351
(I1
(I1
tp1352
g12
I00
S'.\xf8\x1a:P$b@'
p1353
tp1354
bag2
(g3
(I0
tp1355
g5
tp1356
Rp1357
(I1
(I1
tp1358
g12
I00
S'\x88x\xf2\x0fLAb@'
p1359
tp1360
bag2
(g3
(I0
tp1361
g5
tp1362
Rp1363
(I1
(I1
tp1364
g12
I00
S'\xae\xa3\xf7\xe9j^b@'
p1365
tp1366
bag2
(g3
(I0
tp1367
g5
tp1368
Rp1369
(I1
(I1
tp1370
g12
I00
S'\xbd\x94Zi\xac{b@'
p1371
tp1372
bag2
(g3
(I0
tp1373
g5
tp1374
Rp1375
(I1
(I1
tp1376
g12
I00
S'\xab\x9a\xe0+\x10\x99b@'
p1377
tp1378
bag2
(g3
(I0
tp1379
g5
tp1380
Rp1381
(I1
(I1
tp1382
g12
I00
S'`\xa5\xcd\xcb\x95\xb6b@'
p1383
tp1384
bag2
(g3
(I0
tp1385
g5
tp1386
Rp1387
(I1
(I1
tp1388
g12
I00
S'\xf4\xd9\x0e\xe0<\xd4b@'
p1389
tp1390
bag2
(g3
(I0
tp1391
g5
tp1392
Rp1393
(I1
(I1
tp1394
g12
I00
S'\xa7\x8eO\xfc\x04\xf2b@'
p1395
tp1396
bag2
(g3
(I0
tp1397
g5
tp1398
Rp1399
(I1
(I1
tp1400
g12
I00
S'\xc0\x86\x04\xb0\xed\x0fc@'
p1401
tp1402
bag2
(g3
(I0
tp1403
g5
tp1404
Rp1405
(I1
(I1
tp1406
g12
I00
S'f\x88\xc3\x86\xf6-c@'
p1407
tp1408
bag2
(g3
(I0
tp1409
g5
tp1410
Rp1411
(I1
(I1
tp1412
g12
I00
S'\x1fdS\t\x1fLc@'
p1413
tp1414
bag2
(g3
(I0
tp1415
g5
tp1416
Rp1417
(I1
(I1
tp1418
g12
I00
S'@\x86\x0c\xbcfjc@'
p1419
tp1420
bag2
(g3
(I0
tp1421
g5
tp1422
Rp1423
(I1
(I1
tp1424
g12
I00
S'\xe0\x05\x81\x1f\xcd\x88c@'
p1425
tp1426
bag2
(g3
(I0
tp1427
g5
tp1428
Rp1429
(I1
(I1
tp1430
g12
I00
S'\x07\xa3\x9a\xb0Q\xa7c@'
p1431
tp1432
bag2
(g3
(I0
tp1433
g5
tp1434
Rp1435
(I1
(I1
tp1436
g12
I00
S'\xe8L]\xe8\xf3\xc5c@'
p1437
tp1438
bag2
(g3
(I0
tp1439
g5
tp1440
Rp1441
(I1
(I1
tp1442
g12
I00
S'\xab\xc61;\xb3\xe4c@'
p1443
tp1444
bag2
(g3
(I0
tp1445
g5
tp1446
Rp1447
(I1
(I1
tp1448
g12
I00
S'\x14\x80\x8d\x1a\x8f\x03d@'
p1449
tp1450
bag2
(g3
(I0
tp1451
g5
tp1452
Rp1453
(I1
(I1
tp1454
g12
I00
S'JL@\xf3\x86"d@'
p1455
tp1456
bag2
(g3
(I0
tp1457
g5
tp1458
Rp1459
(I1
(I1
tp1460
g12
I00
S'm\xa3\xd5-\x9aAd@'
p1461
tp1462
bag2
(g3
(I0
tp1463
g5
tp1464
Rp1465
(I1
(I1
tp1466
g12
I00
S't\x12\xca.\xc8`d@'
p1467
tp1468
bag2
(g3
(I0
tp1469
g5
tp1470
Rp1471
(I1
(I1
tp1472
g12
I00
S'\xeeVoV\x10\x80d@'
p1473
tp1474
bag2
(g3
(I0
tp1475
g5
tp1476
Rp1477
(I1
(I1
tp1478
g12
I00
S'Y]\xd0\x00r\x9fd@'
p1479
tp1480
bag2
(g3
(I0
tp1481
g5
tp1482
Rp1483
(I1
(I1
tp1484
g12
I00
S'\xd6V\x98\x85\xec\xbed@'
p1485
tp1486
bag2
(g3
(I0
tp1487
g5
tp1488
Rp1489
(I1
(I1
tp1490
g12
I00
S'{j\xf27\x7f\xded@'
p1491
tp1492
bag2
(g3
(I0
tp1493
g5
tp1494
Rp1495
(I1
(I1
tp1496
g12
I00
S'\xcc6\x81f)\xfed@'
p1497
tp1498
bag2
(g3
(I0
tp1499
g5
tp1500
Rp1501
(I1
(I1
tp1502
g12
I00
S't\x08\x12\\\xea\x1de@'
p1503
tp1504
bag2
(g3
(I0
tp1505
g5
tp1506
Rp1507
(I1
(I1
tp1508
g12
I00
S'Z3\x91^\xc1=e@'
p1509
tp1510
bag2
(g3
(I0
tp1511
g5
tp1512
Rp1513
(I1
(I1
tp1514
g12
I00
S'\x1a\t\x8d\xae\xad]e@'
p1515
tp1516
bag2
(g3
(I0
tp1517
g5
tp1518
Rp1519
(I1
(I1
tp1520
g12
I00
S'\xb4\xea\x94\x89\xae}e@'
p1521
tp1522
bag2
(g3
(I0
tp1523
g5
tp1524
Rp1525
(I1
(I1
tp1526
g12
I00
S'\xb1\xe8\x7f&\xc3\x9de@'
p1527
tp1528
bag2
(g3
(I0
tp1529
g5
tp1530
Rp1531
(I1
(I1
tp1532
g12
I00
S'\x88\xd7\x89\xb9\xea\xbde@'
p1533
tp1534
bag2
(g3
(I0
tp1535
g5
tp1536
Rp1537
(I1
(I1
tp1538
g12
I00
S'\x0b\xa6wp$\xdee@'
p1539
tp1540
bag2
(g3
(I0
tp1541
g5
tp1542
Rp1543
(I1
(I1
tp1544
g12
I00
S'c\xc0qto\xfee@'
p1545
tp1546
bag2
(g3
(I0
tp1547
g5
tp1548
Rp1549
(I1
(I1
tp1550
g12
I00
S'\xee\xaf\xb1\xea\xca\x1ef@'
p1551
tp1552
bag2
(g3
(I0
tp1553
g5
tp1554
Rp1555
(I1
(I1
tp1556
g12
I00
S'\xcaD\xbc\xf25?f@'
p1557
tp1558
bag2
(g3
(I0
tp1559
g5
tp1560
Rp1561
(I1
(I1
tp1562
g12
I00
S'\xa6\x9f\x14\xa7\xaf_f@'
p1563
tp1564
bag2
(g3
(I0
tp1565
g5
tp1566
Rp1567
(I1
(I1
tp1568
g12
I00
S'[\xeeB\x1d7\x80f@'
p1569
tp1570
bag2
(g3
(I0
tp1571
g5
tp1572
Rp1573
(I1
(I1
tp1574
g12
I00
S'\xde:\xafe\xcb\xa0f@'
p1575
tp1576
bag2
(g3
(I0
tp1577
g5
tp1578
Rp1579
(I1
(I1
tp1580
g12
I00
S'\x1a*i\x8bk\xc1f@'
p1581
tp1582
bag2
(g3
(I0
tp1583
g5
tp1584
Rp1585
(I1
(I1
tp1586
g12
I00
S'\xdb#\xce\x94\x16\xe2f@'
p1587
tp1588
bag2
(g3
(I0
tp1589
g5
tp1590
Rp1591
(I1
(I1
tp1592
g12
I00
S'N%\xd7\x82\xcb\x02g@'
p1593
tp1594
bag2
(g3
(I0
tp1595
g5
tp1596
Rp1597
(I1
(I1
tp1598
g12
I00
S"'\xeccP\x89#g@"
p1599
tp1600
bag2
(g3
(I0
tp1601
g5
tp1602
Rp1603
(I1
(I1
tp1604
g12
I00
S'sw\x92\xf3NDg@'
p1605
tp1606
bag2
(g3
(I0
tp1607
g5
tp1608
Rp1609
(I1
(I1
tp1610
g12
I00
S'?\x1b\x0e]\x1beg@'
p1611
tp1612
bag2
(g3
(I0
tp1613
g5
tp1614
Rp1615
(I1
(I1
tp1616
g12
I00
S'\x1f\x9e\xffw\xed\x85g@'
p1617
tp1618
bag2
(g3
(I0
tp1619
g5
tp1620
Rp1621
(I1
(I1
tp1622
g12
I00
S'\x84\x95\xb2)\xc4\xa6g@'
p1623
tp1624
bag2
(g3
(I0
tp1625
g5
tp1626
Rp1627
(I1
(I1
tp1628
g12
I00
S'oG\xf1R\x9e\xc7g@'
p1629
tp1630
bag2
(g3
(I0
tp1631
g5
tp1632
Rp1633
(I1
(I1
tp1634
g12
I00
S'\xde\xb7\xd8\xcdz\xe8g@'
p1635
tp1636
bag2
(g3
(I0
tp1637
g5
tp1638
Rp1639
(I1
(I1
tp1640
g12
I00
S'\xf8S\x05oX\th@'
p1641
tp1642
bag2
(g3
(I0
tp1643
g5
tp1644
Rp1645
(I1
(I1
tp1646
g12
I00
S'\xa6\xb3\xa0\x056*h@'
p1647
tp1648
bag2
(g3
(I0
tp1649
g5
tp1650
Rp1651
(I1
(I1
tp1652
g12
I00
S'\xbaL\xeeZ\x12Kh@'
p1653
tp1654
bag2
(g3
(I0
tp1655
g5
tp1656
Rp1657
(I1
(I1
tp1658
g12
I00
S'1\x9cZ2\xeckh@'
p1659
tp1660
bag2
(g3
(I0
tp1661
g5
tp1662
Rp1663
(I1
(I1
tp1664
g12
I00
S'n\x9b\x81I\xc2\x8ch@'
p1665
tp1666
bag2
(g3
(I0
tp1667
g5
tp1668
Rp1669
(I1
(I1
tp1670
g12
I00
S'\xac\xcd\xf4W\x93\xadh@'
p1671
tp1672
bag2
(g3
(I0
tp1673
g5
tp1674
Rp1675
(I1
(I1
tp1676
g12
I00
S'\xb5e\x8b\x0f^\xceh@'
p1677
tp1678
bag2
(g3
(I0
tp1679
g5
tp1680
Rp1681
(I1
(I1
tp1682
g12
I00
S'\xdc<\xdf\x1c!\xefh@'
p1683
tp1684
bag2
(g3
(I0
tp1685
g5
tp1686
Rp1687
(I1
(I1
tp1688
g12
I00
S'\xff\xdd\xa2$\xdb\x0fi@'
p1689
tp1690
bag2
(g3
(I0
tp1691
g5
tp1692
Rp1693
(I1
(I1
tp1694
g12
I00
S'\x17\xfbV\xc7\x8a0i@'
p1695
tp1696
bag2
(g3
(I0
tp1697
g5
tp1698
Rp1699
(I1
(I1
tp1700
g12
I00
S'G\xfat\x9d.Qi@'
p1701
tp1702
bag2
(g3
(I0
tp1703
g5
tp1704
Rp1705
(I1
(I1
tp1706
g12
I00
S'\xa9\xa2\x9a:\xc5qi@'
p1707
tp1708
bag2
(g3
(I0
tp1709
g5
tp1710
Rp1711
(I1
(I1
tp1712
g12
I00
S'!l\xf9+M\x92i@'
p1713
tp1714
bag2
(g3
(I0
tp1715
g5
tp1716
Rp1717
(I1
(I1
tp1718
g12
I00
S'\xbb\x83-\xf8\xc4\xb2i@'
p1719
tp1720
bag2
(g3
(I0
tp1721
g5
tp1722
Rp1723
(I1
(I1
tp1724
g12
I00
S'\xe1\xde\xb7\x1f+\xd3i@'
p1725
tp1726
bag2
(g3
(I0
tp1727
g5
tp1728
Rp1729
(I1
(I1
tp1730
g12
I00
S'EM\xde\x1c~\xf3i@'
p1731
tp1732
bag2
(g3
(I0
tp1733
g5
tp1734
Rp1735
(I1
(I1
tp1736
g12
I00
S'\x8c`\xbbc\xbc\x13j@'
p1737
tp1738
bag2
(g3
(I0
tp1739
g5
tp1740
Rp1741
(I1
(I1
tp1742
g12
I00
S'\x15w\x15b\xe43j@'
p1743
tp1744
bag2
(g3
(I0
tp1745
g5
tp1746
Rp1747
(I1
(I1
tp1748
g12
I00
S'\xb6q\x99~\xf4Sj@'
p1749
tp1750
bag2
(g3
(I0
tp1751
g5
tp1752
Rp1753
(I1
(I1
tp1754
g12
I00
S'B\xb4\x0b\x1b\xebsj@'
p1755
tp1756
bag2
(g3
(I0
tp1757
g5
tp1758
Rp1759
(I1
(I1
tp1760
g12
I00
S'\xe0pF\x91\xc6\x93j@'
p1761
tp1762
bag2
(g3
(I0
tp1763
g5
tp1764
Rp1765
(I1
(I1
tp1766
g12
I00
S'\xf65\x035\x85\xb3j@'
p1767
tp1768
bag2
(g3
(I0
tp1769
g5
tp1770
Rp1771
(I1
(I1
tp1772
g12
I00
S'\xa6;@S%\xd3j@'
p1773
tp1774
bag2
(g3
(I0
tp1775
g5
tp1776
Rp1777
(I1
(I1
tp1778
g12
I00
S'~\xb5\x1a3\xa5\xf2j@'
p1779
tp1780
bag2
(g3
(I0
tp1781
g5
tp1782
Rp1783
(I1
(I1
tp1784
g12
I00
S'\x94\xcd\xaa\x14\x03\x12k@'
p1785
tp1786
bag2
(g3
(I0
tp1787
g5
tp1788
Rp1789
(I1
(I1
tp1790
g12
I00
S'\x16N\xc81=1k@'
p1791
tp1792
bag2
(g3
(I0
tp1793
g5
tp1794
Rp1795
(I1
(I1
tp1796
g12
I00
S'3\xb3\xb9\xbdQPk@'
p1797
tp1798
bag2
(g3
(I0
tp1799
g5
tp1800
Rp1801
(I1
(I1
tp1802
g12
I00
S'$\tK\xe5>ok@'
p1803
tp1804
bag2
(g3
(I0
tp1805
g5
tp1806
Rp1807
(I1
(I1
tp1808
g12
I00
S'\xac\xc3R\xce\x02\x8ek@'
p1809
tp1810
bag2
(g3
(I0
tp1811
g5
tp1812
Rp1813
(I1
(I1
tp1814
g12
I00
S'+\xfd\xac\x97\x9b\xack@'
p1815
tp1816
bag2
(g3
(I0
tp1817
g5
tp1818
Rp1819
(I1
(I1
tp1820
g12
I00
S'9\xf9rY\x07\xcbk@'
p1821
tp1822
bag2
(g3
(I0
tp1823
g5
tp1824
Rp1825
(I1
(I1
tp1826
g12
I00
S'<\xf4\x80&D\xe9k@'
p1827
tp1828
bag2
(g3
(I0
tp1829
g5
tp1830
Rp1831
(I1
(I1
tp1832
g12
I00
S'\x99\x8c4\tP\x07l@'
p1833
tp1834
bag2
(g3
(I0
tp1835
g5
tp1836
Rp1837
(I1
(I1
tp1838
g12
I00
S'W\xd8\x1e\x07)%l@'
p1839
tp1840
bag2
(g3
(I0
tp1841
g5
tp1842
Rp1843
(I1
(I1
tp1844
g12
I00
S'_\xb3\xac\x1d\xcdBl@'
p1845
tp1846
bag2
(g3
(I0
tp1847
g5
tp1848
Rp1849
(I1
(I1
tp1850
g12
I00
S'\x05\x84\x02D:`l@'
p1851
tp1852
bag2
(g3
(I0
tp1853
g5
tp1854
Rp1855
(I1
(I1
tp1856
g12
I00
S'\xbf\xb5Ikn}l@'
p1857
tp1858
bag2
(g3
(I0
tp1859
g5
tp1860
Rp1861
(I1
(I1
tp1862
g12
I00
S'\x02>\x89}g\x9al@'
p1863
tp1864
bag2
(g3
(I0
tp1865
g5
tp1866
Rp1867
(I1
(I1
tp1868
g12
I00
S'\x0c%\x10^#\xb7l@'
p1869
tp1870
bag2
(g3
(I0
tp1871
g5
tp1872
Rp1873
(I1
(I1
tp1874
g12
I00
S'\x0by\xad\xe9\x9f\xd3l@'
p1875
tp1876
bag2
(g3
(I0
tp1877
g5
tp1878
Rp1879
(I1
(I1
tp1880
g12
I00
S'6\xbaR\xf6\xda\xefl@'
p1881
tp1882
bag2
(g3
(I0
tp1883
g5
tp1884
Rp1885
(I1
(I1
tp1886
g12
I00
S'X\xd4-S\xd2\x0bm@'
p1887
tp1888
bag2
(g3
(I0
tp1889
g5
tp1890
Rp1891
(I1
(I1
tp1892
g12
I00
S"e\xbd\x0e\xca\x83'm@"
p1893
tp1894
bag2
(g3
(I0
tp1895
g5
tp1896
Rp1897
(I1
(I1
tp1898
g12
I00
S'\x14\xfb4\x1d\xedBm@'
p1899
tp1900
bag2
(g3
(I0
tp1901
g5
tp1902
Rp1903
(I1
(I1
tp1904
g12
I00
S'f\x93Z\n\x0c^m@'
p1905
tp1906
bag2
(g3
(I0
tp1907
g5
tp1908
Rp1909
(I1
(I1
tp1910
g12
I00
S'\x93 \xd3G\xdexm@'
p1911
tp1912
bag2
(g3
(I0
tp1913
g5
tp1914
Rp1915
(I1
(I1
tp1916
g12
I00
S'\x1d(\xa5\x85a\x93m@'
p1917
tp1918
bag2
(g3
(I0
tp1919
g5
tp1920
Rp1921
(I1
(I1
tp1922
g12
I00
S'\xf9\xf2\xa6m\x93\xadm@'
p1923
tp1924
bag2
(g3
(I0
tp1925
g5
tp1926
Rp1927
(I1
(I1
tp1928
g12
I00
S'\xbfK\xf2\xa2q\xc7m@'
p1929
tp1930
bag2
(g3
(I0
tp1931
g5
tp1932
Rp1933
(I1
(I1
tp1934
g12
I00
S'\xa4\x1a\x13\xc3\xf9\xe0m@'
p1935
tp1936
bag2
(g3
(I0
tp1937
g5
tp1938
Rp1939
(I1
(I1
tp1940
g12
I00
S'\xe7\x0b\x84d)\xfam@'
p1941
tp1942
bag2
(g3
(I0
tp1943
g5
tp1944
Rp1945
(I1
(I1
tp1946
g12
I00
S'\xe2\xc2G\x19\xfe\x12n@'
p1947
tp1948
bag2
(g3
(I0
tp1949
g5
tp1950
Rp1951
(I1
(I1
tp1952
g12
I00
S'\x8c(\xccku+n@'
p1953
tp1954
bag2
(g3
(I0
tp1955
g5
tp1956
Rp1957
(I1
(I1
tp1958
g12
I00
S'j\xeb[\xe2\x8cCn@'
p1959
tp1960
bag2
(g3
(I0
tp1961
g5
tp1962
Rp1963
(I1
(I1
tp1964
g12
I00
S'\xbe\x1d\xf5\xfcA[n@'
p1965
tp1966
bag2
(g3
(I0
tp1967
g5
tp1968
Rp1969
(I1
(I1
tp1970
g12
I00
S'\xf4.\xf45\x92rn@'
p1971
tp1972
bag2
(g3
(I0
tp1973
g5
tp1974
Rp1975
(I1
(I1
tp1976
g12
I00
S'\xfc($\x02{\x89n@'
p1977
tp1978
bag2
(g3
(I0
tp1979
g5
tp1980
Rp1981
(I1
(I1
tp1982
g12
I00
S'M`K\xd0\xf9\x9fn@'
p1983
tp1984
bag2
(g3
(I0
tp1985
g5
tp1986
Rp1987
(I1
(I1
tp1988
g12
I00
S'zF\xcc\t\x0c\xb6n@'
p1989
tp1990
bag2
(g3
(I0
tp1991
g5
tp1992
Rp1993
(I1
(I1
tp1994
g12
I00
S'\xe3\xd7\x06\x14\xaf\xcbn@'
p1995
tp1996
bag2
(g3
(I0
tp1997
g5
tp1998
Rp1999
(I1
(I1
tp2000
g12
I00
S'f\xb4\x15O\xe0\xe0n@'
p2001
tp2002
bag2
(g3
(I0
tp2003
g5
tp2004
Rp2005
(I1
(I1
tp2006
g12
I00
S'$\xa2%\x16\x9d\xf5n@'
p2007
tp2008
bag2
(g3
(I0
tp2009
g5
tp2010
Rp2011
(I1
(I1
tp2012
g12
I00
S'=\xa8B\xc0\xe2\to@'
p2013
tp2014
bag2
(g3
(I0
tp2015
g5
tp2016
Rp2017
(I1
(I1
tp2018
g12
I00
S'\x1e\xee\xee\x9f\xae\x1do@'
p2019
tp2020
bag2
(g3
(I0
tp2021
g5
tp2022
Rp2023
(I1
(I1
tp2024
g12
I00
S'\xe0\xc4\x12\x04\xfe0o@'
p2025
tp2026
bag2
(g3
(I0
tp2027
g5
tp2028
Rp2029
(I1
(I1
tp2030
g12
I00
S'\x15\x8b\xc47\xceCo@'
p2031
tp2032
bag2
(g3
(I0
tp2033
g5
tp2034
Rp2035
(I1
(I1
tp2036
g12
I00
S'\xab\xbb\x9e\x81\x1cVo@'
p2037
tp2038
bag2
(g3
(I0
tp2039
g5
tp2040
Rp2041
(I1
(I1
tp2042
g12
I00
S'\xfb\xd2\xff#\xe6go@'
p2043
tp2044
bag2
(g3
(I0
tp2045
g5
tp2046
Rp2047
(I1
(I1
tp2048
g12
I00
S'\x87G\xf5](yo@'
p2049
tp2050
bag2
(g3
(I0
tp2051
g5
tp2052
Rp2053
(I1
(I1
tp2054
g12
I00
S'\xd4\n\xaek\xe0\x89o@'
p2055
tp2056
bag2
(g3
(I0
tp2057
g5
tp2058
Rp2059
(I1
(I1
tp2060
g12
I00
S'\x11G\x8f\x87\x0b\x9ao@'
p2061
tp2062
bag2
(g3
(I0
tp2063
g5
tp2064
Rp2065
(I1
(I1
tp2066
g12
I00
S'\rJ\xce\xe8\xa6\xa9o@'
p2067
tp2068
bag2
(g3
(I0
tp2069
g5
tp2070
Rp2071
(I1
(I1
tp2072
g12
I00
S'\x89\xf8i\xc4\xaf\xb8o@'
p2073
tp2074
bag2
(g3
(I0
tp2075
g5
tp2076
Rp2077
(I1
(I1
tp2078
g12
I00
S'\xe6;{L#\xc7o@'
p2079
tp2080
bag2
(g3
(I0
tp2081
g5
tp2082
Rp2083
(I1
(I1
tp2084
g12
I00
S'\xee\xfa\xba\xb2\xfe\xd4o@'
p2085
tp2086
bag2
(g3
(I0
tp2087
g5
tp2088
Rp2089
(I1
(I1
tp2090
g12
I00
S"\xee\x82\x1a'?\xe2o@"
p2091
tp2092
bag2
(g3
(I0
tp2093
g5
tp2094
Rp2095
(I1
(I1
tp2096
g12
I00
S'\xfb\xc1\x12\xd7\xe1\xeeo@'
p2097
tp2098
bag2
(g3
(I0
tp2099
g5
tp2100
Rp2101
(I1
(I1
tp2102
g12
I00
S'\xf3\xe8\xfc\xee\xe3\xfao@'
p2103
tp2104
bag2
(g3
(I0
tp2105
g5
tp2106
Rp2107
(I1
(I1
tp2108
g12
I00
S'\x84\x01\xceM!\x03p@'
p2109
tp2110
bag2
(g3
(I0
tp2111
g5
tp2112
Rp2113
(I1
(I1
tp2114
g12
I00
S'\nL\xdd\x84}\x08p@'
p2115
tp2116
bag2
(g3
(I0
tp2117
g5
tp2118
Rp2119
(I1
(I1
tp2120
g12
I00
S'i\xbd|3\x85\rp@'
p2121
tp2122
bag2
(g3
(I0
tp2123
g5
tp2124
Rp2125
(I1
(I1
tp2126
g12
I00
S'n\xf8^\xf06\x12p@'
p2127
tp2128
bag2
(g3
(I0
tp2129
g5
tp2130
Rp2131
(I1
(I1
tp2132
g12
I00
S'\x9a^5S\x91\x16p@'
p2133
tp2134
bag2
(g3
(I0
tp2135
g5
tp2136
Rp2137
(I1
(I1
tp2138
g12
I00
S'V\xd5/\xf4\x92\x1ap@'
p2139
tp2140
bag2
(g3
(I0
tp2141
g5
tp2142
Rp2143
(I1
(I1
tp2144
g12
I00
S'\xe1Tol:\x1ep@'
p2145
tp2146
bag2
(g3
(I0
tp2147
g5
tp2148
Rp2149
(I1
(I1
tp2150
g12
I00
S'\xe8\xd2GW\x86!p@'
p2151
tp2152
bag2
(g3
(I0
tp2153
g5
tp2154
Rp2155
(I1
(I1
tp2156
g12
I00
S'\x95A\x0fQu$p@'
p2157
tp2158
bag2
(g3
(I0
tp2159
g5
tp2160
Rp2161
(I1
(I1
tp2162
g12
I00
S"I\xe6W\xf7\x05'p@"
p2163
tp2164
bag2
(g3
(I0
tp2165
g5
tp2166
Rp2167
(I1
(I1
tp2168
g12
I00
S'\xe1#i\xe96)p@'
p2169
tp2170
bag2
(g3
(I0
tp2171
g5
tp2172
Rp2173
(I1
(I1
tp2174
g12
I00
S'fR"\xc8\x06+p@'
p2175
tp2176
bag2
(g3
(I0
tp2177
g5
tp2178
Rp2179
(I1
(I1
tp2180
g12
I00
S'B\x8a\x9f6t,p@'
p2181
tp2182
bag2
(g3
(I0
tp2183
g5
tp2184
Rp2185
(I1
(I1
tp2186
g12
I00
S'\xb3z\xa2\xda}-p@'
p2187
tp2188
bag2
(g3
(I0
tp2189
g5
tp2190
Rp2191
(I1
(I1
tp2192
g12
I00
S'\x95S2\\".p@'
p2193
tp2194
bag2
(g3
(I0
tp2195
g5
tp2196
Rp2197
(I1
(I1
tp2198
g12
I00
S'\x1d Zf`.p@'
p2199
tp2200
bag2
(g3
(I0
tp2201
g5
tp2202
Rp2203
(I1
(I1
tp2204
g12
I00
S'.N!\xa76.p@'
p2205
tp2206
bag2
(g3
(I0
tp2207
g5
tp2208
Rp2209
(I1
(I1
tp2210
g12
I00
S'\x8d=\xf7\xce\xa3-p@'
p2211
tp2212
bag2
(g3
(I0
tp2213
g5
tp2214
Rp2215
(I1
(I1
tp2216
g12
I00
S"\xe7\x17'\x92\xa6,p@"
p2217
tp2218
bag2
(g3
(I0
tp2219
g5
tp2220
Rp2221
(I1
(I1
tp2222
g12
I00
S'u\x04N\xa8=+p@'
p2223
tp2224
bag2
(g3
(I0
tp2225
g5
tp2226
Rp2227
(I1
(I1
tp2228
g12
I00
S'\xbd\x1dT\xccg)p@'
p2229
tp2230
bag2
(g3
(I0
tp2231
g5
tp2232
Rp2233
(I1
(I1
tp2234
g12
I00
S"\xbb\x0c}\xbc#'p@"
p2235
tp2236
bag2
(g3
(I0
tp2237
g5
tp2238
Rp2239
(I1
(I1
tp2240
g12
I00
S'T\xd6o:p$p@'
p2241
tp2242
bag2
(g3
(I0
tp2243
g5
tp2244
Rp2245
(I1
(I1
tp2246
g12
I00
S'\xb5Pc\x0cL!p@'
p2247
tp2248
bag2
(g3
(I0
tp2249
g5
tp2250
Rp2251
(I1
(I1
tp2252
g12
I00
S'\x9e\xfc[\xfc\xb5\x1dp@'
p2253
tp2254
bag2
(g3
(I0
tp2255
g5
tp2256
Rp2257
(I1
(I1
tp2258
g12
I00
S'\xcd4\x04\xd9\xac\x19p@'
p2259
tp2260
bag2
(g3
(I0
tp2261
g5
tp2262
Rp2263
(I1
(I1
tp2264
g12
I00
S'\xadW1u/\x15p@'
p2265
tp2266
bag2
(g3
(I0
tp2267
g5
tp2268
Rp2269
(I1
(I1
tp2270
g12
I00
S'\xebv\x10\xa9<\x10p@'
p2271
tp2272
bag2
(g3
(I0
tp2273
g5
tp2274
Rp2275
(I1
(I1
tp2276
g12
I00
S'\x1c0VQ\xd3\np@'
p2277
tp2278
bag2
(g3
(I0
tp2279
g5
tp2280
Rp2281
(I1
(I1
tp2282
g12
I00
S'\xd5\x82sP\xf2\x04p@'
p2283
tp2284
bag2
(g3
(I0
tp2285
g5
tp2286
Rp2287
(I1
(I1
tp2288
g12
I00
S'\x9eH\x04\x1b1\xfdo@'
p2289
tp2290
bag2
(g3
(I0
tp2291
g5
tp2292
Rp2293
(I1
(I1
tp2294
g12
I00
S'2\x7f\x9b\xea\x89\xefo@'
p2295
tp2296
bag2
(g3
(I0
tp2297
g5
tp2298
Rp2299
(I1
(I1
tp2300
g12
I00
S'\xb9L-\xf3\xec\xe0o@'
p2301
tp2302
bag2
(g3
(I0
tp2303
g5
tp2304
Rp2305
(I1
(I1
tp2306
g12
I00
S'W\xee\xed#X\xd1o@'
p2307
tp2308
bag2
(g3
(I0
tp2309
g5
tp2310
Rp2311
(I1
(I1
tp2312
g12
I00
S'D\xb6\xf9w\xc9\xc0o@'
p2313
tp2314
bag2
(g3
(I0
tp2315
g5
tp2316
Rp2317
(I1
(I1
tp2318
g12
I00
S'\x04|\x19\xf8>\xafo@'
p2319
tp2320
bag2
(g3
(I0
tp2321
g5
tp2322
Rp2323
(I1
(I1
tp2324
g12
I00
S'\x82\x0cr\xb9\xb6\x9co@'
p2325
tp2326
bag2
(g3
(I0
tp2327
g5
tp2328
Rp2329
(I1
(I1
tp2330
g12
I00
S'\xf9\xeeH\xdc.\x89o@'
p2331
tp2332
bag2
(g3
(I0
tp2333
g5
tp2334
Rp2335
(I1
(I1
tp2336
g12
I00
S'\\\xca|\x8e\xa5to@'
p2337
tp2338
bag2
(g3
(I0
tp2339
g5
tp2340
Rp2341
(I1
(I1
tp2342
g12
I00
S'\xd6\x14\xef\x0c\x19_o@'
p2343
tp2344
bag2
(g3
(I0
tp2345
g5
tp2346
Rp2347
(I1
(I1
tp2348
g12
I00
S'n\xec\xc8\xa3\x87Ho@'
p2349
tp2350
bag2
(g3
(I0
tp2351
g5
tp2352
Rp2353
(I1
(I1
tp2354
g12
I00
S'*\xd9|\xac\xef0o@'
p2355
tp2356
bag2
(g3
(I0
tp2357
g5
tp2358
Rp2359
(I1
(I1
tp2360
g12
I00
S'mM\x01\x8fO\x18o@'
p2361
tp2362
bag2
(g3
(I0
tp2363
g5
tp2364
Rp2365
(I1
(I1
tp2366
g12
I00
S'>\x08R\xc1\xa5\xfen@'
p2367
tp2368
bag2
(g3
(I0
tp2369
g5
tp2370
Rp2371
(I1
(I1
tp2372
g12
I00
S'\xa7GV\xc9\xf0\xe3n@'
p2373
tp2374
bag2
(g3
(I0
tp2375
g5
tp2376
Rp2377
(I1
(I1
tp2378
g12
I00
S'u\x07\xfa;/\xc8n@'
p2379
tp2380
bag2
(g3
(I0
tp2381
g5
tp2382
Rp2383
(I1
(I1
tp2384
g12
I00
S')j5\xbb_\xabn@'
p2385
tp2386
bag2
(g3
(I0
tp2387
g5
tp2388
Rp2389
(I1
(I1
tp2390
g12
I00
S'\x12C\xb0\xfa\x80\x8dn@'
p2391
tp2392
bag2
(g3
(I0
tp2393
g5
tp2394
Rp2395
(I1
(I1
tp2396
g12
I00
S'\xad\x8c\xa5\xbf\x91nn@'
p2397
tp2398
bag2
(g3
(I0
tp2399
g5
tp2400
Rp2401
(I1
(I1
tp2402
g12
I00
S'\x1549\xdf\x90Nn@'
p2403
tp2404
bag2
(g3
(I0
tp2405
g5
tp2406
Rp2407
(I1
(I1
tp2408
g12
I00
S'2\x00\x87A}-n@'
p2409
tp2410
bag2
(g3
(I0
tp2411
g5
tp2412
Rp2413
(I1
(I1
tp2414
g12
I00
S'\xf3\xcb3\xddU\x0bn@'
p2415
tp2416
bag2
(g3
(I0
tp2417
g5
tp2418
Rp2419
(I1
(I1
tp2420
g12
I00
S'\xd8\xa4M\xba\x19\xe8m@'
p2421
tp2422
bag2
(g3
(I0
tp2423
g5
tp2424
Rp2425
(I1
(I1
tp2426
g12
I00
S'F\xbf\xe7\xf1\xc7\xc3m@'
p2427
tp2428
bag2
(g3
(I0
tp2429
g5
tp2430
Rp2431
(I1
(I1
tp2432
g12
I00
S'\xee\xe0\xff\xaf_\x9em@'
p2433
tp2434
bag2
(g3
(I0
tp2435
g5
tp2436
Rp2437
(I1
(I1
tp2438
g12
I00
S'X\xddg3\xe0wm@'
p2439
tp2440
bag2
(g3
(I0
tp2441
g5
tp2442
Rp2443
(I1
(I1
tp2444
g12
I00
S'\xdbg\x07\xccHPm@'
p2445
tp2446
bag2
(g3
(I0
tp2447
g5
tp2448
Rp2449
(I1
(I1
tp2450
g12
I00
S"\\\xd4-\xdd\x98'm@"
p2451
tp2452
bag2
(g3
(I0
tp2453
g5
tp2454
Rp2455
(I1
(I1
tp2456
g12
I00
S'Fp\x8e\xde\xcf\xfdl@'
p2457
tp2458
bag2
(g3
(I0
tp2459
g5
tp2460
Rp2461
(I1
(I1
tp2462
g12
I00
S'\xa1%MV\xed\xd2l@'
p2463
tp2464
bag2
(g3
(I0
tp2465
g5
tp2466
Rp2467
(I1
(I1
tp2468
g12
I00
S'I\x81\x9a\xde\xf0\xa6l@'
p2469
tp2470
bag2
(g3
(I0
tp2471
g5
tp2472
Rp2473
(I1
(I1
tp2474
g12
I00
S"\x9e$<'\xdayl@"
p2475
tp2476
bag2
(g3
(I0
tp2477
g5
tp2478
Rp2479
(I1
(I1
tp2480
g12
I00
S'\x8b\xbd,\xf7\xa8Kl@'
p2481
tp2482
bag2
(g3
(I0
tp2483
g5
tp2484
Rp2485
(I1
(I1
tp2486
g12
I00
S'\x9b\xd2f&]\x1cl@'
p2487
tp2488
bag2
(g3
(I0
tp2489
g5
tp2490
Rp2491
(I1
(I1
tp2492
g12
I00
S'\xa0\xcds\xa2\xf6\xebk@'
p2493
tp2494
bag2
(g3
(I0
tp2495
g5
tp2496
Rp2497
(I1
(I1
tp2498
g12
I00
S'/\xd0\xd9mu\xbak@'
p2499
tp2500
bag2
(g3
(I0
tp2501
g5
tp2502
Rp2503
(I1
(I1
tp2504
g12
I00
S'\xfc\xe9\x03\xa0\xd9\x87k@'
p2505
tp2506
bag2
(g3
(I0
tp2507
g5
tp2508
Rp2509
(I1
(I1
tp2510
g12
I00
S'\x8e\xbdce#Tk@'
p2511
tp2512
bag2
(g3
(I0
tp2513
g5
tp2514
Rp2515
(I1
(I1
tp2516
g12
I00
S'q\xd1M\xfdR\x1fk@'
p2517
tp2518
bag2
(g3
(I0
tp2519
g5
tp2520
Rp2521
(I1
(I1
tp2522
g12
I00
S'\x13\xcb\xa2\xbdh\xe9j@'
p2523
tp2524
bag2
(g3
(I0
tp2525
g5
tp2526
Rp2527
(I1
(I1
tp2528
g12
I00
S'\xe5zd\x12e\xb2j@'
p2529
tp2530
bag2
(g3
(I0
tp2531
g5
tp2532
Rp2533
(I1
(I1
tp2534
g12
I00
S'Lp\xd9}Hzj@'
p2535
tp2536
bag2
(g3
(I0
tp2537
g5
tp2538
Rp2539
(I1
(I1
tp2540
g12
I00
S'o\x8ev\x98\x13Aj@'
p2541
tp2542
bag2
(g3
(I0
tp2543
g5
tp2544
Rp2545
(I1
(I1
tp2546
g12
I00
S'\xc1e\xe4\x0b\xc7\x06j@'
p2547
tp2548
bag2
(g3
(I0
tp2549
g5
tp2550
Rp2551
(I1
(I1
tp2552
g12
I00
S's\xf2\xcc\x9ac\xcbi@'
p2553
tp2554
bag2
(g3
(I0
tp2555
g5
tp2556
Rp2557
(I1
(I1
tp2558
g12
I00
S'~\x9cg\x1e\xea\x8ei@'
p2559
tp2560
bag2
(g3
(I0
tp2561
g5
tp2562
Rp2563
(I1
(I1
tp2564
g12
I00
S'N\x16p\x83[Qi@'
p2565
tp2566
bag2
(g3
(I0
tp2567
g5
tp2568
Rp2569
(I1
(I1
tp2570
g12
I00
S'\tz\x04\xce\xb8\x12i@'
p2571
tp2572
bag2
(g3
(I0
tp2573
g5
tp2574
Rp2575
(I1
(I1
tp2576
g12
I00
S'\x10S\xd9\x18\x03\xd3h@'
p2577
tp2578
bag2
(g3
(I0
tp2579
g5
tp2580
Rp2581
(I1
(I1
tp2582
g12
I00
S'D\x13O\x97;\x92h@'
p2583
tp2584
bag2
(g3
(I0
tp2585
g5
tp2586
Rp2587
(I1
(I1
tp2588
g12
I00
S'J&p\x91cPh@'
p2589
tp2590
bag2
(g3
(I0
tp2591
g5
tp2592
Rp2593
(I1
(I1
tp2594
g12
I00
S'C\xc0Qb|\rh@'
p2595
tp2596
bag2
(g3
(I0
tp2597
g5
tp2598
Rp2599
(I1
(I1
tp2600
g12
I00
S'\xbb\xb9\x16{\x87\xc9g@'
p2601
tp2602
bag2
(g3
(I0
tp2603
g5
tp2604
Rp2605
(I1
(I1
tp2606
g12
I00
S'\xd8\xe6"d\x86\x84g@'
p2607
tp2608
bag2
(g3
(I0
tp2609
g5
tp2610
Rp2611
(I1
(I1
tp2612
g12
I00
S'b\xf9\xd1\xbdz>g@'
p2613
tp2614
bag2
(g3
(I0
tp2615
g5
tp2616
Rp2617
(I1
(I1
tp2618
g12
I00
S'/2\xc1>f\xf7f@'
p2619
tp2620
bag2
(g3
(I0
tp2621
g5
tp2622
Rp2623
(I1
(I1
tp2624
g12
I00
S'\x04`\x8c\xb0J\xaff@'
p2625
tp2626
bag2
(g3
(I0
tp2627
g5
tp2628
Rp2629
(I1
(I1
tp2630
g12
I00
S'jL\x19\xf4)ff@'
p2631
tp2632
bag2
(g3
(I0
tp2633
g5
tp2634
Rp2635
(I1
(I1
tp2636
g12
I00
S'\xd0fN\x01\x06\x1cf@'
p2637
tp2638
bag2
(g3
(I0
tp2639
g5
tp2640
Rp2641
(I1
(I1
tp2642
g12
I00
S'A0T\xe3\xe0\xd0e@'
p2643
tp2644
bag2
(g3
(I0
tp2645
g5
tp2646
Rp2647
(I1
(I1
tp2648
g12
I00
S'\xb0y\xaf\xb8\xbc\x84e@'
p2649
tp2650
bag2
(g3
(I0
tp2651
g5
tp2652
Rp2653
(I1
(I1
tp2654
g12
I00
S'\x0c\xd11\xb4\x9b7e@'
p2655
tp2656
bag2
(g3
(I0
tp2657
g5
tp2658
Rp2659
(I1
(I1
tp2660
g12
I00
S'&]H\x1d\x80\xe9d@'
p2661
tp2662
bag2
(g3
(I0
tp2663
g5
tp2664
Rp2665
(I1
(I1
tp2666
g12
I00
S'm\x14\xbaPl\x9ad@'
p2667
tp2668
bag2
(g3
(I0
tp2669
g5
tp2670
Rp2671
(I1
(I1
tp2672
g12
I00
S'\xfc\x06\xa9\xbfbJd@'
p2673
tp2674
bag2
(g3
(I0
tp2675
g5
tp2676
Rp2677
(I1
(I1
tp2678
g12
I00
S'\xdd)\xae\xede\xf9c@'
p2679
tp2680
bag2
(g3
(I0
tp2681
g5
tp2682
Rp2683
(I1
(I1
tp2684
g12
I00
S'\xd5\xfbZpx\xa7c@'
p2685
tp2686
bag2
(g3
(I0
tp2687
g5
tp2688
Rp2689
(I1
(I1
tp2690
g12
I00
S'\x94bJ\xef\x9cTc@'
p2691
tp2692
bag2
(g3
(I0
tp2693
g5
tp2694
Rp2695
(I1
(I1
tp2696
g12
I00
S';\x85r%\xd6\x00c@'
p2697
tp2698
bag2
(g3
(I0
tp2699
g5
tp2700
Rp2701
(I1
(I1
tp2702
g12
I00
S'\xb3vx\xde&\xacb@'
p2703
tp2704
bag2
(g3
(I0
tp2705
g5
tp2706
Rp2707
(I1
(I1
tp2708
g12
I00
S'\xea\n\x1a\xf3\x91Vb@'
p2709
tp2710
bag2
(g3
(I0
tp2711
g5
tp2712
Rp2713
(I1
(I1
tp2714
g12
I00
S'\xc4\xa1pI\x1a\x00b@'
p2715
tp2716
bag2
(g3
(I0
tp2717
g5
tp2718
Rp2719
(I1
(I1
tp2720
g12
I00
S'\xf0e\xec\xd5\xc2\xa8a@'
p2721
tp2722
bag2
(g3
(I0
tp2723
g5
tp2724
Rp2725
(I1
(I1
tp2726
g12
I00
S'4\x02K\x9d\x8ePa@'
p2727
tp2728
bag2
(g3
(I0
tp2729
g5
tp2730
Rp2731
(I1
(I1
tp2732
g12
I00
S'\x10;i\xaf\x80\xf7`@'
p2733
tp2734
bag2
(g3
(I0
tp2735
g5
tp2736
Rp2737
(I1
(I1
tp2738
g12
I00
S'\xbf\x88\x90%\x9c\x9d`@'
p2739
tp2740
bag2
(g3
(I0
tp2741
g5
tp2742
Rp2743
(I1
(I1
tp2744
g12
I00
S'\xcf9\xc0"\xe4B`@'
p2745
tp2746
bag2
(g3
(I0
tp2747
g5
tp2748
Rp2749
(I1
(I1
tp2750
g12
I00
S'n5x\xa2\xb7\xce_@'
p2751
tp2752
bag2
(g3
(I0
tp2753
g5
tp2754
Rp2755
(I1
(I1
tp2756
g12
I00
S'\xbe\xdf\xeb\xbe\x0c\x16_@'
p2757
tp2758
bag2
(g3
(I0
tp2759
g5
tp2760
Rp2761
(I1
(I1
tp2762
g12
I00
S'f\xb3\x0f\xfa\xcd[^@'
p2763
tp2764
bag2
(g3
(I0
tp2765
g5
tp2766
Rp2767
(I1
(I1
tp2768
g12
I00
S'\xca\x80\xc9\xb2\x01\xa0]@'
p2769
tp2770
bag2
(g3
(I0
tp2771
g5
tp2772
Rp2773
(I1
(I1
tp2774
g12
I00
S'\t\xc0CI\xae\xe2\\@'
p2775
tp2776
bag2
(g3
(I0
tp2777
g5
tp2778
Rp2779
(I1
(I1
tp2780
g12
I00
S'\xf1\xc4\xd8\x13\xda#\\@'
p2781
tp2782
bag2
(g3
(I0
tp2783
g5
tp2784
Rp2785
(I1
(I1
tp2786
g12
I00
S'\x84r\x9eW\x8bc[@'
p2787
tp2788
bag2
(g3
(I0
tp2789
g5
tp2790
Rp2791
(I1
(I1
tp2792
g12
I00
S'\xc2\xf0\x98E\xc8\xa1Z@'
p2793
tp2794
bag2
(g3
(I0
tp2795
g5
tp2796
Rp2797
(I1
(I1
tp2798
g12
I00
S'2>\x17\xec\x96\xdeY@'
p2799
tp2800
bag2
(g3
(I0
tp2801
g5
tp2802
Rp2803
(I1
(I1
tp2804
g12
I00
S'\xa7G`2\xfd\x19Y@'
p2805
tp2806
bag2
(g3
(I0
tp2807
g5
tp2808
Rp2809
(I1
(I1
tp2810
g12
I00
S'\xdf\xcaO\xd2\x00TX@'
p2811
tp2812
bag2
(g3
(I0
tp2813
g5
tp2814
Rp2815
(I1
(I1
tp2816
g12
I00
S'\x91\xf9\x86I\xa7\x8cW@'
p2817
tp2818
bag2
(g3
(I0
tp2819
g5
tp2820
Rp2821
(I1
(I1
tp2822
g12
I00
S'R\x18b\xc9\xf5\xc3V@'
p2823
tp2824
bag2
(g3
(I0
tp2825
g5
tp2826
Rp2827
(I1
(I1
tp2828
g12
I00
S'\xf4\x16\x052\xf1\xf9U@'
p2829
tp2830
bag2
(g3
(I0
tp2831
g5
tp2832
Rp2833
(I1
(I1
tp2834
g12
I00
S'u"\xf5\x00\x9e.U@'
p2835
tp2836
bag2
(g3
(I0
tp2837
g5
tp2838
Rp2839
(I1
(I1
tp2840
g12
I00
S'.4\xd6<\x00bT@'
p2841
tp2842
bag2
(g3
(I0
tp2843
g5
tp2844
Rp2845
(I1
(I1
tp2846
g12
I00
S')IYf\x1b\x94S@'
p2847
tp2848
bag2
(g3
(I0
tp2849
g5
tp2850
Rp2851
(I1
(I1
tp2852
g12
I00
S'\xc6\x04\xade\xf2\xc4R@'
p2853
tp2854
bag2
(g3
(I0
tp2855
g5
tp2856
Rp2857
(I1
(I1
tp2858
g12
I00
S'hc\x02s\x87\xf4Q@'
p2859
tp2860
bag2
(g3
(I0
tp2861
g5
tp2862
Rp2863
(I1
(I1
tp2864
g12
I00
S'\xae\xd8\x90\xf9\xdb"Q@'
p2865
tp2866
bag2
(g3
(I0
tp2867
g5
tp2868
Rp2869
(I1
(I1
tp2870
g12
I00
S'\t\x90\xab\x7f\xf0OP@'
p2871
tp2872
bag2
(g3
(I0
tp2873
g5
tp2874
Rp2875
(I1
(I1
tp2876
g12
I00
S'\xf4FJ\x14\x89\xf7N@'
p2877
tp2878
bag2
(g3
(I0
tp2879
g5
tp2880
Rp2881
(I1
(I1
tp2882
g12
I00
S'\x90\xa2\x17\xfb\xacLM@'
p2883
tp2884
bag2
(g3
(I0
tp2885
g5
tp2886
Rp2887
(I1
(I1
tp2888
g12
I00
S'\x1b\xa8\xbc\xf6F\x9fK@'
p2889
tp2890
bag2
(g3
(I0
tp2891
g5
tp2892
Rp2893
(I1
(I1
tp2894
g12
I00
S'\x98\x9aL}N\xefI@'
p2895
tp2896
bag2
(g3
(I0
tp2897
g5
tp2898
Rp2899
(I1
(I1
tp2900
g12
I00
S'\x8c\x1e5\xe4\xb7<H@'
p2901
tp2902
bag2
(g3
(I0
tp2903
g5
tp2904
Rp2905
(I1
(I1
tp2906
g12
I00
S'\x1d\xe8\xd6\x1et\x87F@'
p2907
tp2908
bag2
(g3
(I0
tp2909
g5
tp2910
Rp2911
(I1
(I1
tp2912
g12
I00
S'\xa2-\x1c~p\xcfD@'
p2913
tp2914
bag2
(g3
(I0
tp2915
g5
tp2916
Rp2917
(I1
(I1
tp2918
g12
I00
S'\x1d]\x03d\x96\x14C@'
p2919
tp2920
bag2
(g3
(I0
tp2921
g5
tp2922
Rp2923
(I1
(I1
tp2924
g12
I00
S'N\x81|\x08\xcbVA@'
p2925
tp2926
bag2
(g3
(I0
tp2927
g5
tp2928
Rp2929
(I1
(I1
tp2930
g12
I00
S'\x1a<mY\xc7+?@'
p2931
tp2932
bag2
(g3
(I0
tp2933
g5
tp2934
Rp2935
(I1
(I1
tp2936
g12
I00
S'[Xz\xb7U\xa3;@'
p2937
tp2938
bag2
(g3
(I0
tp2939
g5
tp2940
Rp2941
(I1
(I1
tp2942
g12
I00
S'M\xfc3\xbf\xd5\x138@'
p2943
tp2944
bag2
(g3
(I0
tp2945
g5
tp2946
Rp2947
(I1
(I1
tp2948
g12
I00
S'\xf0\x1f_t\xdb|4@'
p2949
tp2950
bag2
(g3
(I0
tp2951
g5
tp2952
Rp2953
(I1
(I1
tp2954
g12
I00
S'R\xdf2<\xfa\xdd0@'
p2955
tp2956
bag2
(g3
(I0
tp2957
g5
tp2958
Rp2959
(I1
(I1
tp2960
g12
I00
S'\xc98F\x9e\x89m*@'
p2961
tp2962
bag2
(g3
(I0
tp2963
g5
tp2964
Rp2965
(I1
(I1
tp2966
g12
I00
S'\x15)eU\x9a\r#@'
p2967
tp2968
bag2
(g3
(I0
tp2969
g5
tp2970
Rp2971
(I1
(I1
tp2972
g12
I00
S'\xadZ(\r\x926\x17@'
p2973
tp2974
bag2
(g3
(I0
tp2975
g5
tp2976
Rp2977
(I1
(I1
tp2978
g12
I00
S'\xedj\x94\xb0\xd9V\x00@'
p2979
tp2980
bag2
(g3
(I0
tp2981
g5
tp2982
Rp2983
(I1
(I1
tp2984
g12
I00
S'\xc68\x06S\xf4\x1f\xfc\xbf'
p2985
tp2986
bag2
(g3
(I0
tp2987
g5
tp2988
Rp2989
(I1
(I1
tp2990
g12
I00
S'\x95\xb4\x1d\xa9qe\x16\xc0'
p2991
tp2992
bag2
(g3
(I0
tp2993
g5
tp2994
Rp2995
(I1
(I1
tp2996
g12
I00
S'\\\x06em]\xf7"\xc0'
p2997
tp2998
bag2
(g3
(I0
tp2999
g5
tp3000
Rp3001
(I1
(I1
tp3002
g12
I00
S'\x8c\xb1\xb3o\xd3\xd2*\xc0'
p3003
tp3004
bag2
(g3
(I0
tp3005
g5
tp3006
Rp3007
(I1
(I1
tp3008
g12
I00
S'u\x16G\x19\x02c1\xc0'
p3009
tp3010
bag2
(g3
(I0
tp3011
g5
tp3012
Rp3013
(I1
(I1
tp3014
g12
I00
S'\x1d\xeb\xe8\xb2\xedh5\xc0'
p3015
tp3016
bag2
(g3
(I0
tp3017
g5
tp3018
Rp3019
(I1
(I1
tp3020
g12
I00
S'!\x19c\x97\xa3{9\xc0'
p3021
tp3022
bag2
(g3
(I0
tp3023
g5
tp3024
Rp3025
(I1
(I1
tp3026
g12
I00
S'\xd6\x15m"\x9c\x9b=\xc0'
p3027
tp3028
bag2
(g3
(I0
tp3029
g5
tp3030
Rp3031
(I1
(I1
tp3032
g12
I00
S'\xb2\xb0\xa0\x83\xa8\xe4@\xc0'
p3033
tp3034
bag2
(g3
(I0
tp3035
g5
tp3036
Rp3037
(I1
(I1
tp3038
g12
I00
S'\x90\xc4\x8f\xaf\x9e\x02C\xc0'
p3039
tp3040
bag2
(g3
(I0
tp3041
g5
tp3042
Rp3043
(I1
(I1
tp3044
g12
I00
S"G\x84\xf1\xdb\xee'E\xc0"
p3045
tp3046
bag2
(g3
(I0
tp3047
g5
tp3048
Rp3049
(I1
(I1
tp3050
g12
I00
S'.}X\x11\xd8TG\xc0'
p3051
tp3052
baa.